(dp0
VGallup, Michael
p1
(i__main__
Player
p2
(dp3
S'points_per_week'
p4
(lp5
I0
aF0.9400000000000001
aF2.83
aF2.7700000000000005
aF2.75
aF2.8400000000000003
aF2.75
aF2.7300000000000004
aI0
aF2.81
aF2.8000000000000003
aF2.7800000000000002
aF2.7300000000000004
aF2.79
aF2.8000000000000003
aF2.7800000000000002
aF2.85
aI0
asS'position'
p6
S'WR'
p7
sS'team'
p8
VDAL
p9
sS'id'
p10
I13646
sS'name'
p11
g1
sbsVSims, Dion
p12
(i__main__
Player
p13
(dp14
g4
(lp15
I0
aF1.81
aF1.5299999999999998
aF1.67
aF1.5
aI0
aF1.95
aF1.42
aF1.78
aF1.7000000000000002
aF1.8200000000000003
aF1.44
aF1.8200000000000003
aF1.7800000000000002
aF1.7400000000000002
aF1.81
aF1.75
aI0
asg6
S'TE'
p16
sg8
VCHI
p17
sg10
I11249
sg11
g12
sbsVOlsen, Greg
p18
(i__main__
Player
p19
(dp20
g4
(lp21
I0
aF6.8100000000000005
aF6.9
aF7.180000000000001
aI0
aF7.84
aF6.94
aF6.370000000000001
aF6.550000000000001
aF6.29
aF6.44
aF8.100000000000001
aF6.410000000000001
aF6.29
aF7.08
aF6.470000000000001
aF6.9
aI0
asg6
g16
sg8
VCAR
p22
sg10
I8687
sg11
g18
sbsVOsweiler, Brock
p23
(i__main__
Player
p24
(dp25
g4
(lp26
I0
aF0.674
aF1.6480000000000001
aF1.578
aF1.506
aF1.6440000000000001
aF1.502
aF1.6440000000000001
aF1.6520000000000001
aF1.6480000000000001
aF1.6800000000000002
aI0
aF1.6620000000000001
aF1.482
aF1.506
aF1.478
aF1.5640000000000003
aI0
asg6
S'QB'
p27
sg8
VMIA
p28
sg10
I10702
sg11
g23
sbsVThielen, Adam
p29
(i__main__
Player
p30
(dp31
g4
(lp32
I0
aF6.98
aF6.970000000000001
aF6.28
aF6.710000000000001
aF6.86
aF6.12
aF6.63
aF6.94
aF6.36
aI0
aF6.710000000000001
aF6.970000000000001
aF6.83
aF6.9
aF6.37
aF6.36
aI0
asg6
g7
sg8
VMIN
p33
sg10
I11938
sg11
g29
sbsVEdmonds, Chase
p34
(i__main__
Player
p35
(dp36
g4
(lp37
I0
aF3.3900000000000006
aF3.95
aF3.73
aF3.96
aF3.58
aF3.6900000000000004
aF3.83
aF3.58
aI0
aF3.86
aF3.81
aF3.95
aF3.87
aF4.220000000000001
aF3.7
aF3.95
aI0
asg6
S'RB'
p38
sg8
VARZ
p39
sg10
I13726
sg11
g34
sbsVAmendola, Danny
p40
(i__main__
Player
p41
(dp42
g4
(lp43
I0
aF4.31
aF3.8200000000000003
aF3.57
aF3.9899999999999993
aF3.5800000000000005
aF3.9899999999999993
aF3.6599999999999997
aF4.3
aF3.8200000000000003
aF4.07
aI0
aF4.01
aF3.5500000000000003
aF3.9899999999999993
aF3.68
aF3.91
aI0
asg6
g7
sg8
VMIA
p44
sg10
I9308
sg11
g40
sbsVPruitt, MyCole
p45
(i__main__
Player
p46
(dp47
g4
(lp48
I0
aI0
aF0.12
aF0.13
aF0.13
aF0.12
aF0.12
aF0.16000000000000003
aF0.13999999999999999
aF0.12
aI0
aF0.12
aF0.12
aF0.13
aF0.13
aF0.12
aF0.11000000000000001
aI0
asg6
g16
sg8
VHOU
p49
sg10
I12309
sg11
g45
sbsVThomas, Demaryius
p50
(i__main__
Player
p51
(dp52
g4
(lp53
I0
aF7.850000000000001
aF7.33
aF7.58
aF7.529999999999999
aF7.6899999999999995
aF7.7299999999999995
aF7.2299999999999995
aF7.529999999999999
aF8.81
aI0
aF7.1899999999999995
aF8.07
aF7.39
aF8.010000000000002
aF7.6899999999999995
aF7.33
aI0
asg6
g7
sg8
VDEN
p54
sg10
I9884
sg11
g50
sbsVReynolds, Josh
p55
(i__main__
Player
p56
(dp57
g4
(lp58
I0
aF0.87
aF0.82
aF0.83
aF0.91
aF1.02
aF0.92
aF1.0
aF1.0
aF1.0699999999999998
aF1.02
aF0.92
aI0
aF0.88
aF0.9700000000000001
aF0.9700000000000001
aF0.82
aI0
asg6
g7
sg8
VLAR
p59
sg10
I13168
sg11
g55
sbsVDavis, Mike
p60
(i__main__
Player
p61
(dp62
g4
(lp63
I0
aF3.3800000000000003
aF2.13
aF2.2399999999999998
aF2.13
aF2.34
aF2.2
aI0
aF2.5700000000000003
aF2.32
aF2.34
aF2.2600000000000002
aF2.16
aF1.96
aF2.1
aF1.96
aF2.2399999999999998
aI0
asg6
g38
sg8
VSEA
p64
sg10
I12164
sg11
g60
sbsVBrate, Cameron
p65
(i__main__
Player
p66
(dp67
g4
(lp68
I0
aF4.8500000000000005
aF4.840000000000001
aF4.880000000000001
aF4.94
aI0
aF5.220000000000001
aF5.2700000000000005
aF5.33
aF4.94
aF5.17
aF5.46
aF5.3500000000000005
aF4.94
aF4.8500000000000005
aF4.95
aF5.23
aI0
asg6
g16
sg8
VTBB
p69
sg10
I12110
sg11
g65
sbsVRosen, Josh
p70
(i__main__
Player
p71
(dp72
g4
(lp73
I0
aF-0.23200000000000004
aF4.1979999999999995
aF4.284
aF4.284
aF4.319999999999999
aF4.268
aF4.296
aF4.319999999999999
aI0
aF4.287999999999999
aF4.287999999999999
aF4.268
aF4.524
aF4.316
aF4.316
aF4.1979999999999995
aI0
asg6
g27
sg8
VARZ
p74
sg10
I13591
sg11
g70
sbsVGray, MarQueis
p75
(i__main__
Player
p76
(dp77
g4
(lp78
I0
aF0.68
aF0.7300000000000001
aF0.5800000000000001
aF0.45000000000000007
aF0.57
aF0.51
aF0.59
aF0.57
aF0.7300000000000001
aF0.5800000000000001
aI0
aF0.57
aF0.56
aF0.45000000000000007
aF0.459
aF0.49
aI0
asg6
g16
sg8
VMIA
p79
sg10
I11434
sg11
g75
sbsVJackson, Justin
p80
(i__main__
Player
p81
(dp82
g4
(lp83
I0
aF0.28
aF0.38
aF0.29000000000000004
aF0.26
aF0.26
aF0.30000000000000004
aF0.27
aI0
aF0.29000000000000004
aF0.26
aF0.30000000000000004
aF0.27
aF0.29000000000000004
aF0.32
aF0.27
aF0.30000000000000004
aI0
asg6
g38
sg8
VLAC
p84
sg10
I13620
sg11
g80
sbsVRaiders, Oakland
p85
(i__main__
Player
p86
(dp87
g4
(lp88
I0
aF4.0
aF5.4
aF5.300000000000001
aF6.2
aF3.4
aF5.300000000000001
aI0
aF5.7
aF4.1
aF3.4
aF6.1000000000000005
aF3.4
aF4.0
aF3.5999999999999996
aF5.2
aF5.4
aI0
asg6
S'D'
p89
sg8
VOAK
p90
sg10
I513
sg11
g85
sbsVGoedert, Dallas
p91
(i__main__
Player
p92
(dp93
g4
(lp94
I0
aF1.9800000000000002
aF1.5
aF1.76
aF1.7400000000000002
aF1.4
aF1.8400000000000003
aF1.57
aF1.5300000000000002
aI0
aF1.6700000000000002
aF1.55
aF1.8400000000000003
aF1.6900000000000002
aF1.6700000000000002
aF1.72
aF1.77
aI0
asg6
g16
sg8
VPHI
p95
sg10
I13674
sg11
g91
sbsVHansen, Chad
p96
(i__main__
Player
p97
(dp98
g4
(lp99
I0
aF0.30000000000000004
aF0.27999999999999997
aF0.31000000000000005
aF0.31000000000000005
aF0.30000000000000004
aF0.32000000000000006
aF0.30000000000000004
aF0.32000000000000006
aF0.27999999999999997
aF0.27999999999999997
aI0
aF0.33
aF0.33
aF0.27999999999999997
aF0.35000000000000003
aF0.33
aI0
asg6
g7
sg8
VNYJ
p100
sg10
I13183
sg11
g96
sbsVHundley, Brett
p101
(i__main__
Player
p102
(dp103
g4
(lp104
I0
aF2.6759999999999997
aF2.1879999999999997
aF2.8139999999999996
aF2.1559999999999997
aF2.1959999999999997
aF2.226
aI0
aF2.996
aF1.8419999999999996
aF2.1959999999999997
aF2.908
aF2.9499999999999997
aF2.944
aF1.8940000000000001
aF2.944
aF2.23
aI0
asg6
g27
sg8
VSEA
p105
sg10
I12142
sg11
g101
sbsVBouagnon, Joel
p106
(i__main__
Player
p107
(dp108
g4
(lp109
I0
aF0.09999999999999999
aF0.06
aI0
aI0
aI0
aI0
aI0
aI0
aI0
aI0
aI0
aI0
aI0
aI0
aI0
aI0
aI0
asg6
g38
sg8
VGBP
p110
sg10
I13859
sg11
g106
sbsVFountain, Daurice
p111
(i__main__
Player
p112
(dp113
g4
(lp114
I0
aI0
aI0
aI0
aI0
aI0
aI0
aI0
aI0
aI0
aF0.020000000000000004
aI0
aI0
aF0.020000000000000004
aI0
aI0
aI0
aI0
asg6
g7
sg8
VIND
p115
sg10
I13666
sg11
g111
sbsVAkins, Jordan
p116
(i__main__
Player
p117
(dp118
g4
(lp119
I0
aF0.13999999999999999
aF0.18000000000000002
aF0.19
aF0.18000000000000002
aF0.18000000000000002
aF0.18000000000000002
aF0.22000000000000003
aF0.2
aF0.18000000000000002
aI0
aF0.18000000000000002
aF0.18000000000000002
aF0.18000000000000002
aF0.18000000000000002
aF0.18000000000000002
aF0.16000000000000003
aI0
asg6
g16
sg8
VHOU
p120
sg10
I13753
sg11
g116
sbsVLewis, Dion
p121
(i__main__
Player
p122
(dp123
g4
(lp124
I0
aF6.53
aF9.73
aF9.420000000000002
aF8.55
aF10.4
aF9.570000000000002
aF9.510000000000002
aI0
aF9.370000000000001
aF9.320000000000002
aF9.430000000000001
aF9.73
aF9.71
aF9.420000000000002
aF9.65
aF9.790000000000001
aI0
asg6
g38
sg8
VTEN
p125
sg10
I10389
sg11
g121
sbsVRedskins, Washington
p126
(i__main__
Player
p127
(dp128
g4
(lp129
I0
aF8.0
aF7.200000000000001
aF6.9
aI0
aF4.72
aF4.319999999999999
aF7.300000000000001
aF6.199999999999999
aF4.880000000000001
aF6.5
aF8.1
aF7.300000000000001
aF4.779999999999999
aF6.199999999999999
aF4.880000000000001
aF6.800000000000001
aI0
asg6
g89
sg8
VWAS
p130
sg10
I520
sg11
g126
sbsVSterling, Neal
p131
(i__main__
Player
p132
(dp133
g4
(lp134
I0
aF0.17
aF0.13999999999999999
aF0.13
aF0.11000000000000001
aF0.13
aF0.13999999999999999
aF0.11000000000000001
aF0.12
aF0.13999999999999999
aF0.13
aI0
aF0.22000000000000003
aF0.13
aF0.13
aF0.15000000000000002
aF0.13999999999999999
aI0
asg6
g16
sg8
VNYJ
p135
sg10
I12363
sg11
g131
sbsVFournette, Leonard
p136
(i__main__
Player
p137
(dp138
g4
(lp139
I0
aF14.17
aF13.379999999999999
aF13.520000000000001
aF14.34
aF13.6
aF13.51
aF14.45
aF12.31
aI0
aF13.77
aF14.17
aF16.400000000000002
aF13.77
aF13.520000000000001
aF14.51
aF15.41
aI0
asg6
g38
sg8
VJAC
p140
sg10
I13129
sg11
g136
sbsVTucker, Justin
p141
(i__main__
Player
p142
(dp143
g4
(lp144
I0
aF11.3
aF10.0
aF9.2
aF9.5
aF10.100000000000001
aF11.400000000000002
aF10.100000000000001
aF9.7
aF9.5
aI0
aF10.0
aF11.400000000000002
aF9.2
aF9.600000000000001
aF10.100000000000001
aF9.2
aI0
asg6
S'K'
p145
sg8
VBAL
p146
sg10
I10976
sg11
g141
sbsVDolphins, Miami
p147
(i__main__
Player
p148
(dp149
g4
(lp150
I0
aF6.0
aF6.0
aF6.0
aF4.2
aF6.0
aF6.0
aF5.8999999999999995
aF7.1
aF6.0
aF6.1
aI0
aF6.300000000000001
aF6.0
aF4.2
aF4.6
aF4.300000000000001
aI0
asg6
g89
sg8
VMIA
p151
sg10
I503
sg11
g147
sbsVWilson, Russell
p152
(i__main__
Player
p153
(dp154
g4
(lp155
I0
aF19.324
aF18.288
aF19.956
aF18.262000000000004
aF18.658
aF18.468
aI0
aF21.662000000000003
aF16.822
aF18.658
aF21.938
aF21.95
aF21.825999999999997
aF16.808
aF21.825999999999997
aF18.48
aI0
asg6
g27
sg8
VSEA
p156
sg10
I10703
sg11
g152
sbsVO'Shaughnessy, James
p157
(i__main__
Player
p158
(dp159
g4
(lp160
I0
aF1.05
aF0.8400000000000001
aF1.06
aF1.03
aF1.0
aF1.05
aF1.1099999999999999
aF0.9000000000000001
aI0
aF1.1
aF0.9099999999999999
aF1.03
aF1.1
aF1.06
aF1.04
aF1.15
aI0
asg6
g16
sg8
VJAC
p161
sg10
I12330
sg11
g157
sbsVColeman, Brandon
p162
(i__main__
Player
p163
(dp164
g4
(lp165
I0
aI0
aF2.0500000000000003
aF2.1
aF2.18
aF2.06
aI0
aF2.02
aF1.9700000000000002
aF2.04
aF1.8900000000000001
aF2.12
aF2.1
aF2.1300000000000003
aF2.1500000000000004
aF2.43
aF2.17
aI0
asg6
g7
sg8
VNOR
p166
sg10
I11754
sg11
g162
sbsVVannett, Nick
p167
(i__main__
Player
p168
(dp169
g4
(lp170
I0
aF6.819999999999999
aF5.930000000000001
aF6.7299999999999995
aF6.1000000000000005
aF6.78
aF6.9799999999999995
aI0
aF2.17
aF2.02
aF2.0700000000000003
aF2.1300000000000003
aF1.9800000000000002
aF2.79
aF1.8300000000000003
aF2.79
aF1.9900000000000002
aI0
asg6
g16
sg8
VSEA
p171
sg10
I12680
sg11
g167
sbsVCarlson, Daniel
p172
(i__main__
Player
p173
(dp174
g4
(lp175
I0
aF6.860000000000001
aF7.659999999999999
aF8.09
aF6.76
aF6.460000000000001
aF6.860000000000001
aF6.960000000000001
aF7.56
aF6.960000000000001
aI0
aF7.359999999999999
aF7.659999999999999
aF6.860000000000001
aF7.989999999999999
aF7.659999999999999
aF6.960000000000001
aI0
asg6
g145
sg8
VMIN
p176
sg10
I13718
sg11
g172
sbsVDayes, Matthew
p177
(i__main__
Player
p178
(dp179
g4
(lp180
I0
aF0.14
aF0.12000000000000001
aF0.12000000000000001
aF0.11000000000000001
aF0.12000000000000001
aF0.12000000000000001
aF0.12000000000000001
aF0.14
aF0.12000000000000001
aF0.11000000000000001
aI0
aF0.14
aF0.13
aF0.11000000000000001
aF0.11000000000000001
aF0.14
aI0
asg6
g38
sg8
VCLE
p181
sg10
I13140
sg11
g177
sbsVHurns, Allen
p182
(i__main__
Player
p183
(dp184
g4
(lp185
I0
aF5.62
aF5.110000000000001
aF4.9
aF4.57
aF5.15
aF4.74
aF4.78
aI0
aF5.08
aF4.910000000000001
aF4.8500000000000005
aF4.78
aF4.920000000000001
aF4.910000000000001
aF4.930000000000001
aF5.120000000000001
aI0
asg6
g7
sg8
VDAL
p186
sg10
I11925
sg11
g182
sbsVMontgomery, Ty
p187
(i__main__
Player
p188
(dp189
g4
(lp190
I0
aF3.8200000000000003
aF5.21
aF5.640000000000001
aF5.9799999999999995
aF5.73
aF5.23
aI0
aF5.5
aF5.380000000000001
aF5.74
aF5.53
aF5.21
aF5.32
aF5.42
aF5.31
aF5.59
aI0
asg6
g38
sg8
VGBP
p191
sg10
I12261
sg11
g187
sbsVIngram, Mark
p192
(i__main__
Player
p193
(dp194
g4
(lp195
I0
aI0
aI0
aI0
aI0
aF12.73
aI0
aF12.190000000000001
aF10.64
aF12.06
aF13.64
aF10.56
aF10.65
aF11.63
aF12.000000000000002
aF11.500000000000002
aF12.180000000000001
aI0
asg6
g38
sg8
VNOR
p196
sg10
I10276
sg11
g192
sbsVBlue, Alfred
p197
(i__main__
Player
p198
(dp199
g4
(lp200
I0
aF4.3100000000000005
aF4.340000000000001
aF4.700000000000001
aF4.5200000000000005
aF4.380000000000001
aF5.51
aF4.390000000000001
aF4.960000000000001
aF4.36
aI0
aF4.840000000000001
aF4.340000000000001
aF4.7
aF4.5200000000000005
aF4.740000000000001
aF4.16
aI0
asg6
g38
sg8
VHOU
p201
sg10
I11834
sg11
g197
sbsVSudfeld, Nate
p202
(i__main__
Player
p203
(dp204
g4
(lp205
I0
aF-0.010000000000000002
aF-0.011000000000000001
aF-0.011000000000000001
aF-0.010000000000000002
aF-0.016
aF-0.009
aF-0.010000000000000002
aF-0.011000000000000001
aI0
aF0.051000000000000004
aF-0.011000000000000001
aF-0.009
aF-0.012
aF0.051000000000000004
aF-0.011000000000000001
aF-0.009
aI0
asg6
g27
sg8
VPHI
p206
sg10
I12815
sg11
g202
sbsVSnead, Willie
p207
(i__main__
Player
p208
(dp209
g4
(lp210
I0
aF1.2120000000000002
aF1.2520000000000002
aF1.262
aF1.432
aF1.2999999999999998
aF1.4220000000000002
aF1.362
aF1.663
aF1.432
aI0
aF1.2520000000000002
aF1.335
aF1.322
aF1.2720000000000002
aF1.3719999999999999
aF1.182
aI0
asg6
g7
sg8
VBAL
p211
sg10
I11951
sg11
g207
sbsVDoyle, Jack
p212
(i__main__
Player
p213
(dp214
g4
(lp215
I0
aF6.18
aF5.8999999999999995
aF4.890000000000001
aF6.160000000000001
aF4.61
aF5.93
aF5.87
aF6.24
aI0
aF5.44
aF6.04
aF6.500000000000001
aF5.44
aF6.160000000000001
aF5.97
aF6.1499999999999995
aI0
asg6
g16
sg8
VIND
p216
sg10
I11516
sg11
g212
sbsVKamara, Alvin
p217
(i__main__
Player
p218
(dp219
g4
(lp220
I0
aF14.83
aF15.180000000000001
aF13.520000000000001
aF15.22
aF16.25
aI0
aF15.14
aF12.72
aF14.94
aF16.76
aF13.39
aF13.520000000000001
aF14.549999999999999
aF14.83
aF13.74
aF15.13
aI0
asg6
g38
sg8
VNOR
p221
sg10
I13132
sg11
g217
sbsVSwaim, Geoff
p222
(i__main__
Player
p223
(dp224
g4
(lp225
I0
aF4.949999999999999
aF5.07
aF3.9400000000000004
aF5.160000000000001
aF5.07
aF3.9000000000000004
aF4.23
aI0
aF4.97
aF3.81
aF4.32
aF4.23
aF3.96
aF3.81
aF5.03
aF3.8000000000000003
aI0
asg6
g16
sg8
VDAL
p226
sg10
I12378
sg11
g222
sbsVDavis, Austin
p227
(i__main__
Player
p228
(dp229
g4
(lp230
I0
aF-0.002
aF-0.003
aF-0.002
aF-0.003
aF-0.002
aF-0.003
aI0
aF-0.002
aF-0.003
aF-0.002
aF-0.002
aF-0.002
aF-0.002
aF-0.003
aF-0.002
aF-0.003
aI0
asg6
g27
sg8
VSEA
p231
sg10
I11001
sg11
g227
sbsVZuerlein, Greg
p232
(i__main__
Player
p233
(dp234
g4
(lp235
I0
aF9.690000000000001
aF7.86
aF6.5600000000000005
aF7.39
aF8.489999999999998
aF7.260000000000001
aF7.39
aF8.489999999999998
aF8.09
aF8.489999999999998
aF7.39
aI0
aF8.09
aF8.39
aF6.66
aF7.86
aI0
asg6
g145
sg8
VLAR
p236
sg10
I10868
sg11
g232
sbsVKrieger Coble, Henry
p237
(i__main__
Player
p238
(dp239
g4
(lp240
I0
aI0
aF0.010000000000000002
aI0
aI0
aI0
aI0
aI0
aI0
aI0
aI0
aI0
aI0
aI0
aI0
aI0
aF0.010000000000000002
aI0
asg6
g16
sg8
VLAR
p241
sg10
I12894
sg11
g237
sbsVPhillips, John
p242
(i__main__
Player
p243
(dp244
g4
(lp245
I0
aF0.04000000000000001
aF0.060000000000000026
aF0.05000000000000002
aF0.07
aF0.05000000000000002
aI0
aF0.020000000000000018
aF0.010000000000000009
aF0.05000000000000002
aF0.060000000000000026
aF0.020000000000000018
aF0.05000000000000002
aF0.060000000000000026
aF0.04000000000000001
aF0.010000000000000009
aF0.020000000000000018
aI0
asg6
g16
sg8
VNOR
p246
sg10
I9638
sg11
g242
sbsVEdwards, Gus
p247
(i__main__
Player
p248
(dp249
g4
(lp250
I0
aF0.010000000000000002
aF0.010000000000000002
aF0.010000000000000002
aF0.010000000000000002
aF0.020000000000000004
aF0.010000000000000002
aF0.010000000000000002
aF0.010000000000000002
aF0.010000000000000002
aI0
aF0.010000000000000002
aF0.010000000000000002
aF0.010000000000000002
aF0.010000000000000002
aF0.010000000000000002
aF0.010000000000000002
aI0
asg6
g38
sg8
VBAL
p251
sg10
I13850
sg11
g247
sbsVLuck, Andrew
p252
(i__main__
Player
p253
(dp254
g4
(lp255
I0
aF13.67
aF15.89
aF15.016
aF18.342
aF15.884
aF18.206
aF14.154
aF16.238
aI0
aF16.32
aF17.543999999999997
aF18.368
aF16.32
aF18.342
aF17.088
aF18.378
aI0
asg6
g27
sg8
VIND
p256
sg10
I10695
sg11
g252
sbsVThomas, Roc
p257
(i__main__
Player
p258
(dp259
g4
(lp260
I0
aF0.05
aF0.05
aF0.06999999999999999
aF0.06
aF0.05
aF0.05
aF0.06
aF0.05
aF0.0
aI0
aF0.05
aF0.05
aF0.05
aF0.06
aF0.06
aF0.0
aI0
asg6
g38
sg8
VMIN
p261
sg10
I13628
sg11
g257
sbsVGriffin III, Robert
p262
(i__main__
Player
p263
(dp264
g4
(lp265
I0
aF0.02
aI0
aI0
aI0
aI0
aI0
aI0
aI0
aI0
aI0
aI0
aI0
aI0
aI0
aI0
aF1.4029999999999998
aI0
asg6
g27
sg8
VBAL
p266
sg10
I10696
sg11
g262
sbsVBoyd, Tyler
p267
(i__main__
Player
p268
(dp269
g4
(lp270
I0
aF3.6100000000000003
aF3.5
aF4.23
aF3.6100000000000003
aF3.34
aF3.75
aF3.43
aF3.8400000000000003
aI0
aF3.6500000000000004
aF3.5
aF3.4800000000000004
aF3.4000000000000004
aF3.22
aF3.32
aF3.4800000000000004
aI0
asg6
g7
sg8
VCIN
p271
sg10
I12650
sg11
g267
sbsVMurray, Latavius
p272
(i__main__
Player
p273
(dp274
g4
(lp275
I0
aF7.750000000000001
aF8.190000000000001
aF10.22
aF8.92
aF7.710000000000001
aF7.800000000000001
aF9.14
aF8.81
aF9.56
aI0
aF7.86
aF8.190000000000001
aF7.959999999999999
aF8.27
aF9.54
aF9.56
aI0
asg6
g38
sg8
VMIN
p276
sg10
I11390
sg11
g272
sbsVRidley, Calvin
p277
(i__main__
Player
p278
(dp279
g4
(lp280
I0
aF4.72
aF5.33
aF4.74
aF4.380000000000001
aF4.83
aF4.9
aF4.860000000000001
aI0
aF4.66
aF4.62
aF4.73
aF4.74
aF4.500000000000001
aF4.720000000000001
aF4.33
aF5.33
aI0
asg6
g7
sg8
VATL
p281
sg10
I13629
sg11
g277
sbsVHyde, Carlos
p282
(i__main__
Player
p283
(dp284
g4
(lp285
I0
aF6.28
aF8.64
aF8.760000000000002
aF7.87
aF8.670000000000002
aF8.590000000000002
aF8.610000000000001
aF8.670000000000002
aF8.520000000000001
aF7.75
aI0
aF9.05
aF8.850000000000001
aF7.86
aF7.89
aF9.05
aI0
asg6
g38
sg8
VCLE
p286
sg10
I11657
sg11
g282
sbsVMays, Devante
p287
(i__main__
Player
p288
(dp289
g4
(lp290
I0
aF0.06000000000000001
aF0.05
aF0.06000000000000001
aF0.08
aF0.08
aF0.01999999999999999
aI0
aF0.03
aF0.03
aF0.07000000000000002
aF0.05
aF0.01999999999999999
aF0.01999999999999999
aF0.01999999999999999
aF0.03999999999999998
aF0.06000000000000001
aI0
asg6
g38
sg8
VGBP
p291
sg10
I13357
sg11
g287
sbsVMcGrath, Sean
p292
(i__main__
Player
p293
(dp294
g4
(lp295
I0
aF0.12
aF0.09000000000000001
aF0.06999999999999999
aF0.08000000000000002
aF0.09000000000000001
aI0
aF0.11000000000000001
aF0.06999999999999999
aF0.06999999999999999
aF0.08000000000000002
aF0.08000000000000002
aF0.08000000000000002
aF0.08000000000000002
aF0.08000000000000002
aF0.1
aF0.06999999999999999
aI0
asg6
g16
sg8
VDET
p296
sg10
I11123
sg11
g292
sbsVSmith, Torrey
p297
(i__main__
Player
p298
(dp299
g4
(lp300
I0
aF2.1
aF1.9939999999999998
aF1.8519999999999999
aI0
aF2.1790000000000003
aF1.9809999999999999
aF2.03
aF1.921
aF2.1590000000000003
aF2.149
aF1.8820000000000001
aF2.0500000000000003
aF2.1590000000000003
aF1.961
aF2.02
aF1.9939999999999998
aI0
asg6
g7
sg8
VCAR
p301
sg10
I10289
sg11
g297
sbsVSutton, Courtland
p302
(i__main__
Player
p303
(dp304
g4
(lp305
I0
aF2.5300000000000002
aF1.8
aF1.8800000000000001
aF1.94
aF1.9000000000000001
aF1.94
aF1.74
aF1.94
aF2.1100000000000003
aI0
aF1.74
aF2.08
aF1.77
aF2.0500000000000003
aF1.92
aF1.8
aI0
asg6
g7
sg8
VDEN
p306
sg10
I13630
sg11
g302
sbsVWashington, DeAndre
p307
(i__main__
Player
p308
(dp309
g4
(lp310
I0
aF2.19
aF2.08
aF2.33
aF2.24
aF2.08
aF2.19
aI0
aF2.11
aF1.9300000000000002
aF2.08
aF2.0
aF2.23
aF2.1700000000000004
aF2.23
aF2.39
aF2.08
aI0
asg6
g38
sg8
VOAK
p311
sg10
I12857
sg11
g307
sbsVJackson, DeSean
p312
(i__main__
Player
p313
(dp314
g4
(lp315
I0
aF6.7700000000000005
aF7.090000000000001
aF7.23
aF6.910000000000001
aI0
aF6.95
aF6.780000000000001
aF6.4
aF8.14
aF6.880000000000001
aF7.260000000000001
aF7.16
aF8.14
aF7.050000000000001
aF6.65
aF7.11
aI0
asg6
g7
sg8
VTBB
p316
sg10
I9075
sg11
g312
sbsVJones, Ronald
p317
(i__main__
Player
p318
(dp319
g4
(lp320
I0
aF3.0
aF2.6999999999999997
aF3.03
aF2.79
aI0
aF2.8400000000000003
aF3.0500000000000003
aF3.42
aF2.69
aF3.24
aF3.04
aF2.82
aF2.69
aF3.0
aF3.03
aF2.88
aI0
asg6
g38
sg8
VTBB
p321
sg10
I13606
sg11
g317
sbsVMcGloin, Matt
p322
(i__main__
Player
p323
(dp324
g4
(lp325
I0
aF0.009000000000000001
aF0.013000000000000001
aF0.013000000000000001
aF0.013000000000000001
aF0.013000000000000001
aF0.013000000000000001
aF0.013000000000000001
aF0.013000000000000001
aF0.017
aF0.013000000000000001
aF0.013000000000000001
aI0
aF0.013000000000000001
aF0.009000000000000001
aF0.009000000000000001
aF0.013000000000000001
aI0
asg6
g27
sg8
VKCC
p326
sg10
I11465
sg11
g322
sbsVColeman, Derrick
p327
(i__main__
Player
p328
(dp329
g4
(lp330
I0
aI0
aF0.04000000000000001
aF0.04000000000000001
aF0.04000000000000001
aF0.04000000000000001
aF0.04000000000000001
aF0.04000000000000001
aF0.04000000000000001
aI0
aF0.04000000000000001
aF0.04000000000000001
aF0.04000000000000001
aF0.04000000000000001
aF0.05
aF0.04000000000000001
aF0.04000000000000001
aI0
asg6
g38
sg8
VARZ
p331
sg10
I11524
sg11
g327
sbsVLindsay, Phillip
p332
(i__main__
Player
p333
(dp334
g4
(lp335
I0
aF1.13
aF1.04
aF1.16
aF1.16
aF1.22
aF1.13
aF1.02
aF1.16
aF1.21
aI0
aF1.0899999999999999
aF1.16
aF1.2799999999999998
aF0.9700000000000001
aF1.16
aF1.04
aI0
asg6
g38
sg8
VDEN
p336
sg10
I13614
sg11
g332
sbsVRiddick, Theo
p337
(i__main__
Player
p338
(dp339
g4
(lp340
I0
aF6.3500000000000005
aF4.140000000000001
aF4.43
aF4.460000000000001
aF4.48
aI0
aF5.03
aF4.58
aF4.210000000000001
aF4.25
aF4.43
aF4.25
aF4.6
aF4.33
aF6.000000000000001
aF4.210000000000001
aI0
asg6
g38
sg8
VDET
p341
sg10
I11188
sg11
g337
sbsVFlacco, Joe
p342
(i__main__
Player
p343
(dp344
g4
(lp345
I0
aF10.766000000000002
aF14.566000000000003
aF13.107999999999997
aF13.405999999999999
aF15.429999999999998
aF14.458000000000002
aF13.302
aF15.425999999999998
aF13.405999999999999
aI0
aF14.566000000000003
aF12.366000000000001
aF14.796
aF12.38
aF13.038
aF10.532000000000002
aI0
asg6
g27
sg8
VBAL
p346
sg10
I9064
sg11
g342
sbsVHilton, T.Y.
p347
(i__main__
Player
p348
(dp349
g4
(lp350
I0
aF7.370000000000001
aF9.200000000000001
aF9.38
aF9.76
aF9.31
aF9.14
aF8.72
aF8.790000000000001
aI0
aF9.110000000000001
aF9.53
aF8.83
aF9.110000000000001
aF9.76
aF9.42
aF9.6
aI0
asg6
g7
sg8
VIND
p351
sg10
I10729
sg11
g347
sbsVToilolo, Levine
p352
(i__main__
Player
p353
(dp354
g4
(lp355
I0
aF0.47000000000000003
aF0.47000000000000003
aF0.37000000000000005
aF0.45999999999999996
aF0.45999999999999996
aI0
aF0.5
aF0.5
aF0.39
aF0.41
aF0.42000000000000004
aF0.41
aF0.45999999999999996
aF0.43
aF0.47000000000000003
aF0.39
aI0
asg6
g16
sg8
VDET
p356
sg10
I11252
sg11
g352
sbsVGabbert, Blaine
p357
(i__main__
Player
p358
(dp359
g4
(lp360
I0
aF1.686
aF1.4340000000000004
aF1.3899999999999997
aF1.334
aF1.084
aF1.084
aF1.07
aI0
aF1.58
aF1.416
aF1.588
aF1.4340000000000004
aF1.6600000000000001
aF1.3899999999999997
aF1.69
aF1.4399999999999997
aI0
asg6
g27
sg8
VTEN
p361
sg10
I10262
sg11
g357
sbsVWilliams, Chad
p362
(i__main__
Player
p363
(dp364
g4
(lp365
I0
aF1.14
aF1.18
aF1.18
aF1.19
aF1.25
aF1.0899999999999999
aF1.12
aF1.25
aI0
aF1.12
aF1.06
aF0.9600000000000001
aF1.21
aF1.0899999999999999
aF1.2
aF1.18
aI0
asg6
g7
sg8
VARZ
p366
sg10
I13280
sg11
g362
sbsVMiller, Anthony
p367
(i__main__
Player
p368
(dp369
g4
(lp370
I0
aF2.81
aF2.64
aF2.25
aF2.8
aI0
aF2.41
aF2.61
aF2.52
aF2.38
aF2.46
aF2.33
aF2.46
aF2.75
aF2.54
aF2.8200000000000003
aF2.61
aI0
asg6
g7
sg8
VCHI
p371
sg10
I13639
sg11
g367
sbsVBoyle, Nick
p372
(i__main__
Player
p373
(dp374
g4
(lp375
I0
aF3.45
aF3.64
aF1.4800000000000002
aF1.31
aF1.4800000000000002
aF1.51
aF1.32
aF1.35
aF1.31
aI0
aF1.51
aF1.55
aF1.4500000000000002
aF1.36
aF1.26
aF1.4000000000000001
aI0
asg6
g16
sg8
VBAL
p376
sg10
I12328
sg11
g372
sbsVMcManus, Brandon
p377
(i__main__
Player
p378
(dp379
g4
(lp380
I0
aF7.3999999999999995
aF7.800000000000001
aF6.9
aF6.9
aF7.3
aF5.699999999999999
aF6.9
aF6.9
aF7.900000000000001
aI0
aF6.0
aF6.299999999999999
aF7.3
aF6.9
aF7.3
aF7.800000000000001
aI0
asg6
g145
sg8
VDEN
p381
sg10
I11947
sg11
g377
sbsVWilliams, Terrance
p382
(i__main__
Player
p383
(dp384
g4
(lp385
I0
aF8.870000000000001
aF6.330000000000001
aF6.130000000000001
aF5.800000000000001
aF6.43
aF5.98
aF6.02
aI0
aF6.29
aF6.09
aF6.1000000000000005
aF6.02
aF6.17
aF6.09
aF6.1000000000000005
aF6.42
aI0
asg6
g7
sg8
VDAL
p386
sg10
I11211
sg11
g382
sbsVEifert, Tyler
p387
(i__main__
Player
p388
(dp389
g4
(lp390
I0
aF6.79
aF5.19
aF5.210000000000001
aF5.41
aF6.390000000000001
aF5.110000000000001
aF5.24
aF5.030000000000001
aI0
aF5.15
aF5.19
aF6.0600000000000005
aF5.44
aF5.3100000000000005
aF6.210000000000001
aF6.0600000000000005
aI0
asg6
g16
sg8
VCIN
p391
sg10
I11250
sg11
g387
sbsVBurton, Trey
p392
(i__main__
Player
p393
(dp394
g4
(lp395
I0
aF3.9499999999999997
aF5.49
aF5.59
aF5.44
aI0
aF6.5200000000000005
aF5.32
aF5.65
aF5.640000000000001
aF6.470000000000001
aF5.34
aF6.470000000000001
aF6.34
aF6.35
aF6.460000000000001
aF6.33
aI0
asg6
g16
sg8
VCHI
p396
sg10
I11705
sg11
g392
sbsVTreggs, Bryce
p397
(i__main__
Player
p398
(dp399
g4
(lp400
I0
aI0
aF0.060000000000000026
aF0.030000000000000027
aF0.08000000000000002
aF0.010000000000000009
aF0.05000000000000002
aF0.10999999999999999
aF0.020000000000000018
aI0
aF0.05000000000000002
aF0.030000000000000027
aF0.05000000000000002
aF0.020000000000000018
aF0.05000000000000002
aF0.020000000000000018
aF0.07999999999999999
aI0
asg6
g7
sg8
VPHI
p401
sg10
I12947
sg11
g397
sbsVCooks, Brandin
p402
(i__main__
Player
p403
(dp404
g4
(lp405
I0
aF9.46
aF8.680000000000001
aF8.700000000000001
aF9.170000000000002
aF10.31
aF9.200000000000001
aF10.510000000000002
aF10.35
aF10.39
aF10.31
aF9.240000000000002
aI0
aF9.120000000000001
aF10.170000000000002
aF10.41
aF8.680000000000001
aI0
asg6
g7
sg8
VLAR
p406
sg10
I11674
sg11
g402
sbsVHill, Tyreek
p407
(i__main__
Player
p408
(dp409
g4
(lp410
I0
aF9.29
aF10.62
aF11.23
aF9.91
aF10.15
aF10.459999999999999
aF9.53
aF9.91
aF10.12
aF9.309999999999999
aF10.18
aI0
aF9.52
aF9.889999999999999
aF9.29
aF10.51
aI0
asg6
g7
sg8
VKCC
p411
sg10
I12801
sg11
g407
sbsVSwoope, Erik
p412
(i__main__
Player
p413
(dp414
g4
(lp415
I0
aF0.9299999999999999
aF0.9100000000000001
aF0.8200000000000001
aF0.9100000000000001
aF0.77
aF0.9500000000000002
aF0.8900000000000001
aF0.9900000000000002
aI0
aF0.8600000000000001
aF0.9100000000000001
aF1.02
aF0.8600000000000001
aF0.9100000000000001
aF0.9199999999999999
aF0.96
aI0
asg6
g16
sg8
VIND
p416
sg10
I11904
sg11
g412
sbsVStafford, Matthew
p417
(i__main__
Player
p418
(dp419
g4
(lp420
I0
aF19.119999999999997
aF19.386
aF15.562
aF17.621999999999996
aF20.014000000000003
aI0
aF19.984
aF15.626
aF13.67
aF15.574
aF19.468
aF15.574
aF16.476
aF15.520000000000001
aF14.376000000000001
aF13.67
aI0
asg6
g27
sg8
VDET
p421
sg10
I9431
sg11
g417
sbsVStills, Kenny
p422
(i__main__
Player
p423
(dp424
g4
(lp425
I0
aF8.080000000000002
aF7.78
aF7.420000000000001
aF7.880000000000001
aF7.390000000000001
aF7.89
aF7.53
aF8.4
aF7.78
aF8.040000000000001
aI0
aF7.94
aF7.38
aF7.880000000000001
aF7.550000000000001
aF7.78
aI0
asg6
g7
sg8
VMIA
p426
sg10
I11227
sg11
g422
sbsVHogan, Chris
p427
(i__main__
Player
p428
(dp429
g4
(lp430
I0
aF12.41
aF11.41
aF11.08
aF11.06
aF8.74
aF8.42
aF8.71
aF7.61
aF8.83
aF8.93
aI0
aF8.53
aF8.39
aF7.6400000000000015
aF9.02
aF7.61
aI0
asg6
g7
sg8
VNEP
p431
sg10
I10983
sg11
g427
sbsV49ers, San Francisco
p432
(i__main__
Player
p433
(dp434
g4
(lp435
I0
aF5.0
aF5.7
aF4.1
aF3.7
aF6.6000000000000005
aF6.000000000000001
aF3.9
aF6.6000000000000005
aF5.7
aF5.7
aI0
aF5.7
aF5.8999999999999995
aF6.000000000000001
aF5.8999999999999995
aF5.8
aI0
asg6
g89
sg8
VSFO
p436
sg10
I530
sg11
g432
sbsVVinatieri, Adam
p437
(i__main__
Player
p438
(dp439
g4
(lp440
I0
aF8.0
aF8.7
aF6.9
aF9.399999999999999
aF7.9
aF8.5
aF8.7
aF8.7
aI0
aF7.6
aF9.0
aF8.6
aF7.6
aF9.399999999999999
aF6.7
aF7.9
aI0
asg6
g145
sg8
VIND
p441
sg10
I2842
sg11
g437
sbsVCross, Alan
p442
(i__main__
Player
p443
(dp444
g4
(lp445
I0
aI0
aF0.29000000000000004
aF0.29000000000000004
aF0.3
aI0
aF0.35
aF0.34
aF0.35
aF0.28
aF0.32999999999999996
aF0.37
aF0.35
aF0.28
aF0.27
aF0.3
aF0.32999999999999996
aI0
asg6
g16
sg8
VTBB
p446
sg10
I12996
sg11
g442
sbsVBenjamin, Travis
p447
(i__main__
Player
p448
(dp449
g4
(lp450
I0
aF5.07
aF4.91
aF5.220000000000001
aF5.45
aF4.98
aF5.27
aF5.49
aI0
aF5.390000000000001
aF4.98
aF5.09
aF4.8100000000000005
aF5.500000000000001
aF4.930000000000001
aF5.07
aF5.1000000000000005
aI0
asg6
g7
sg8
VLAC
p451
sg10
I10737
sg11
g447
sbsVGabriel, Taylor
p452
(i__main__
Player
p453
(dp454
g4
(lp455
I0
aF3.0300000000000002
aF2.29
aF1.94
aF2.47
aI0
aF2.09
aF2.27
aF2.17
aF2.0300000000000002
aF2.16
aF2.1100000000000003
aF2.16
aF2.39
aF2.21
aF2.41
aF2.34
aI0
asg6
g7
sg8
VCHI
p456
sg10
I11975
sg11
g452
sbsVGiants, New York
p457
(i__main__
Player
p458
(dp459
g4
(lp460
I0
aF4.4
aF6.8999999999999995
aF7.699999999999999
aF4.1
aF4.0
aF4.3
aF4.4
aF6.000000000000001
aI0
aF4.4
aF5.6
aF4.3
aF6.499999999999999
aF6.000000000000001
aF6.499999999999999
aF6.8
aI0
asg6
g89
sg8
VNYG
p461
sg10
I517
sg11
g457
sbsVButker, Harrison
p462
(i__main__
Player
p463
(dp464
g4
(lp465
I0
aF8.5
aF8.5
aF9.2
aF8.8
aF8.9
aF9.3
aF9.3
aF8.8
aF9.6
aF9.2
aF8.5
aI0
aF10.2
aF9.2
aF8.5
aF10.1
aI0
asg6
g145
sg8
VKCC
p466
sg10
I13354
sg11
g462
sbsVJohnson, Kerryon
p467
(i__main__
Player
p468
(dp469
g4
(lp470
I0
aF9.74
aF9.24
aF9.63
aF9.790000000000001
aF9.83
aI0
aF11.129999999999999
aF9.94
aF9.520000000000001
aF9.430000000000001
aF9.64
aF9.430000000000001
aF9.98
aF9.420000000000002
aF12.36
aF9.520000000000001
aI0
asg6
g38
sg8
VDET
p471
sg10
I13612
sg11
g467
sbsVGilbert, Garrett
p472
(i__main__
Player
p473
(dp474
g4
(lp475
I0
aF-0.017
aF-0.016
aF-0.017
aI0
aF-0.015
aF-0.019000000000000003
aF-0.020000000000000004
aF-0.021
aF-0.017
aF-0.018
aF-0.016
aF-0.019000000000000003
aF-0.017
aF-0.016
aF-0.0010000000000000009
aF-0.016
aI0
asg6
g27
sg8
VCAR
p476
sg10
I11854
sg11
g472
sbsVGrant, Ryan
p477
(i__main__
Player
p478
(dp479
g4
(lp480
I0
aF3.39
aF3.6600000000000006
aF3.77
aF3.8700000000000006
aF3.72
aF3.6
aF3.37
aF3.4200000000000004
aI0
aF3.64
aF3.7800000000000002
aF3.45
aF3.64
aF3.8700000000000006
aF3.83
aF3.83
aI0
asg6
g7
sg8
VIND
p481
sg10
I11812
sg11
g477
sbsVMarshall, Brandon
p482
(i__main__
Player
p483
(dp484
g4
(lp485
I0
aF0.5770000000000001
aF0.47600000000000003
aF0.47600000000000003
aF0.405
aF0.455
aF0.435
aI0
aF0.44500000000000006
aF0.42500000000000004
aF0.455
aF0.47600000000000003
aF0.567
aF0.49800000000000005
aF0.44500000000000006
aF0.49800000000000005
aF0.44500000000000006
aI0
asg6
g7
sg8
VSEA
p486
sg10
I8360
sg11
g482
sbsVBengals, Cincinnati
p487
(i__main__
Player
p488
(dp489
g4
(lp490
I0
aF5.7
aF4.5
aF3.9
aF4.800000000000001
aF6.000000000000001
aF4.0
aF4.699999999999999
aF5.7
aI0
aF4.6
aF4.5
aF6.8999999999999995
aF6.2
aF3.9
aF5.7
aF6.8999999999999995
aI0
asg6
g89
sg8
VCIN
p491
sg10
I506
sg11
g487
sbsVRyan, Matt
p492
(i__main__
Player
p493
(dp494
g4
(lp495
I0
aF14.746
aF19.284000000000002
aF17.036
aF18.164000000000005
aF17.114
aF16.356
aF19.380000000000003
aI0
aF15.238
aF19.23
aF17.194000000000003
aF17.036
aF14.046000000000001
aF19.426
aF15.184000000000001
aF19.284000000000002
aI0
asg6
g27
sg8
VATL
p496
sg10
I9099
sg11
g492
sbsVReed, Jordan
p497
(i__main__
Player
p498
(dp499
g4
(lp500
I0
aF5.32
aF5.63
aF5.71
aI0
aF5.120000000000001
aF5.17
aF5.51
aF5.59
aF5.47
aF4.960000000000001
aF5.66
aF5.51
aF5.06
aF5.59
aF5.04
aF5.57
aI0
asg6
g16
sg8
VWAS
p501
sg10
I11248
sg11
g497
sbsVLambo, Josh
p502
(i__main__
Player
p503
(dp504
g4
(lp505
I0
aF7.199999999999999
aF7.199999999999999
aF7.999999999999999
aF7.199999999999999
aF7.1
aF6.5
aF8.2
aF6.7
aI0
aF7.1
aF7.1
aF7.999999999999999
aF7.1
aF7.999999999999999
aF8.1
aF7.6
aI0
asg6
g145
sg8
VJAC
p506
sg10
I12417
sg11
g502
sbsVHigbee, Tyler
p507
(i__main__
Player
p508
(dp509
g4
(lp510
I0
aF2.47
aF2.27
aF2.2900000000000005
aF1.93
aF2.1700000000000004
aF2.39
aF2.41
aF2.45
aF2.24
aF2.1700000000000004
aF2.24
aI0
aF2.5
aF2.1700000000000004
aF2.0900000000000003
aF2.27
aI0
asg6
g16
sg8
VLAR
p511
sg10
I12678
sg11
g507
sbsVMorgan, David
p512
(i__main__
Player
p513
(dp514
g4
(lp515
I0
aF0.94
aF0.99
aF0.94
aF0.9600000000000001
aF0.87
aF0.9199999999999999
aF0.94
aF0.88
aF1.1099999999999999
aI0
aF0.9199999999999999
aF0.99
aF0.78
aF0.89
aF1.08
aF1.1099999999999999
aI0
asg6
g16
sg8
VMIN
p516
sg10
I12816
sg11
g512
sbsVKelley, Rob
p517
(i__main__
Player
p518
(dp519
g4
(lp520
I0
aF3.8000000000000003
aF3.9400000000000004
aF3.9200000000000004
aI0
aF3.95
aF3.8800000000000003
aF3.7900000000000005
aF4.0
aF3.7600000000000007
aF3.9600000000000004
aF4.16
aF3.7900000000000005
aF3.7500000000000004
aF4.0
aF3.9200000000000004
aF3.8800000000000003
aI0
asg6
g38
sg8
VWAS
p521
sg10
I12887
sg11
g517
sbsVPackers, Green Bay
p522
(i__main__
Player
p523
(dp524
g4
(lp525
I0
aF6.4
aF4.5
aF5.5
aF6.1
aF5.8999999999999995
aF4.5
aI0
aF4.4
aF4.1
aF6.3
aF6.3
aF4.5
aF6.9
aF4.4
aF6.4
aF6.3
aI0
asg6
g89
sg8
VGBP
p526
sg10
I523
sg11
g522
sbsVClark, Michael
p527
(i__main__
Player
p528
(dp529
g4
(lp530
I0
aI0
aF0.62
aF0.6
aF0.55
aF0.53
aF0.6400000000000001
aI0
aF0.6
aF0.6200000000000001
aF0.5700000000000001
aF0.67
aF0.62
aF0.53
aF0.75
aF0.5900000000000001
aF0.6
aI0
asg6
g7
sg8
VGBP
p531
sg10
I13408
sg11
g527
sbsVStocker, Luke
p532
(i__main__
Player
p533
(dp534
g4
(lp535
I0
aF0.27999999999999997
aF0.22000000000000003
aF0.2
aF0.19
aF0.21000000000000002
aF0.19
aF0.2
aI0
aF0.21000000000000002
aF0.17
aF0.21000000000000002
aF0.22000000000000003
aF0.21000000000000002
aF0.2
aF0.22000000000000003
aF0.21000000000000002
aI0
asg6
g16
sg8
VTEN
p536
sg10
I10354
sg11
g532
sbsVEagles, Philadelphia
p537
(i__main__
Player
p538
(dp539
g4
(lp540
I0
aF6.2
aF8.8
aF11.3
aF10.9
aF7.1000000000000005
aF7.9
aF5.8999999999999995
aF6.9
aI0
aF11.6
aF6.2
aF7.9
aF7.9
aF11.6
aF6.800000000000001
aF12.8
aI0
asg6
g89
sg8
VPHI
p541
sg10
I518
sg11
g537
sbsVDavis, Trevor
p542
(i__main__
Player
p543
(dp544
g4
(lp545
I0
aI0
aF0.28
aF0.30000000000000004
aF0.28
aF0.32
aF0.32
aI0
aF0.30000000000000004
aF0.32
aF0.28
aF0.32
aF0.28
aF0.27
aF0.32
aF0.29000000000000004
aF0.29000000000000004
aI0
asg6
g7
sg8
VGBP
p546
sg10
I12800
sg11
g542
sbsVJets, New York
p547
(i__main__
Player
p548
(dp549
g4
(lp550
I0
aF3.3
aF3.4000000000000004
aF3.9
aF2.4
aF3.4000000000000004
aF3.6999999999999997
aF2.5
aF3.4000000000000004
aF3.4000000000000004
aF3.6
aI0
aF2.4
aF3.4000000000000004
aF3.6
aF4.0
aF3.4000000000000004
aI0
asg6
g89
sg8
VNYJ
p551
sg10
I505
sg11
g547
sbsVPanthers, Carolina
p552
(i__main__
Player
p553
(dp554
g4
(lp555
I0
aF10.8
aF6.8
aF9.100000000000001
aI0
aF8.7
aF8.4
aF6.7
aF6.1
aF8.9
aF6.3999999999999995
aF8.8
aF9.100000000000001
aF8.9
aF11.0
aF6.3999999999999995
aF6.8
aI0
asg6
g89
sg8
VCAR
p556
sg10
I527
sg11
g552
sbsVEdelman, Julian
p557
(i__main__
Player
p558
(dp559
g4
(lp560
I0
aI0
aI0
aI0
aI0
aF10.880000000000003
aF10.390000000000002
aF10.8
aF9.850000000000001
aF11.030000000000001
aF11.3
aI0
aF10.600000000000001
aF10.290000000000003
aF10.21
aF11.82
aF9.850000000000001
aI0
asg6
g7
sg8
VNEP
p561
sg10
I9662
sg11
g557
sbsVPope, Troymaine
p562
(i__main__
Player
p563
(dp564
g4
(lp565
I0
aF0.1
aF0.1
aF0.11000000000000001
aF0.13
aF0.11000000000000001
aF0.13
aF0.010000000000000002
aF0.020000000000000004
aF0.010000000000000002
aI0
aF0.010000000000000002
aF0.010000000000000002
aF0.010000000000000002
aF0.010000000000000002
aF0.010000000000000002
aF0.020000000000000004
aI0
asg6
g38
sg8
VHOU
p566
sg10
I12929
sg11
g562
sbsVPeake, Charone
p567
(i__main__
Player
p568
(dp569
g4
(lp570
I0
aI0
aF0.47000000000000003
aF0.48
aF0.48
aF0.47000000000000003
aF0.48
aF0.45999999999999996
aF0.49000000000000005
aF0.47000000000000003
aF0.47000000000000003
aI0
aF0.55
aF0.52
aF0.47000000000000003
aF0.54
aF0.51
aI0
asg6
g7
sg8
VNYJ
p571
sg10
I12673
sg11
g567
sbsVMizzell, Taquan
p572
(i__main__
Player
p573
(dp574
g4
(lp575
I0
aF0.020000000000000004
aF0.020000000000000004
aF0.020000000000000004
aF0.026000000000000002
aI0
aF0.020000000000000004
aF0.020000000000000004
aF0.020000000000000004
aF0.020000000000000004
aF0.03
aF0.020000000000000004
aF0.03
aF0.020000000000000004
aF0.020000000000000004
aF0.020000000000000004
aF0.020000000000000004
aI0
asg6
g38
sg8
VCHI
p576
sg10
I13384
sg11
g572
sbsVRobinson, Allen
p577
(i__main__
Player
p578
(dp579
g4
(lp580
I0
aF4.92
aF8.68
aF8.09
aF9.52
aI0
aF8.27
aF8.629999999999999
aF8.47
aF8.2
aF8.4
aF8.46
aF8.4
aF8.84
aF8.51
aF9.379999999999999
aF9.3
aI0
asg6
g7
sg8
VCHI
p581
sg10
I11678
sg11
g577
sbsVTaylor, Tyrod
p582
(i__main__
Player
p583
(dp584
g4
(lp585
I0
aF11.22
aF11.049999999999999
aF12.11
aF10.234
aF9.177999999999999
aF9.203999999999999
aF10.818
aF11.22
aF10.256
aF11.67
aI0
aF11.383999999999999
aF11.98
aF12.192
aF11.002
aF11.383999999999999
aI0
asg6
g27
sg8
VCLE
p586
sg10
I10413
sg11
g582
sbsVMickens, Jaydon
p587
(i__main__
Player
p588
(dp589
g4
(lp590
I0
aF0.13999999999999999
aF0.13999999999999999
aF0.15999999999999998
aF0.13
aF0.13
aF0.13999999999999999
aF0.43
aF0.13999999999999999
aI0
aF0.13
aF0.13999999999999999
aF0.12
aF0.13
aF0.15999999999999998
aF0.13999999999999999
aF0.13
aI0
asg6
g7
sg8
VJAC
p591
sg10
I13510
sg11
g587
sbsVPaul, Niles
p592
(i__main__
Player
p593
(dp594
g4
(lp595
I0
aF0.77
aF0.6000000000000001
aF0.72
aF0.7100000000000001
aF0.68
aF0.7300000000000001
aF0.77
aF0.67
aI0
aF0.79
aF0.6500000000000001
aF0.72
aF0.79
aF0.72
aF0.72
aF0.8300000000000001
aI0
asg6
g16
sg8
VJAC
p596
sg10
I10394
sg11
g592
sbsVTurbin, Robert
p597
(i__main__
Player
p598
(dp599
g4
(lp600
I0
aI0
aI0
aI0
aI0
aF4.63
aF4.87
aF6.000000000000001
aF4.7
aI0
aF4.72
aF4.65
aF5.029999999999999
aF4.72
aF4.970000000000001
aF4.66
aF4.85
aI0
asg6
g38
sg8
VIND
p601
sg10
I10714
sg11
g597
sbsVGoodwin, Marquise
p602
(i__main__
Player
p603
(dp604
g4
(lp605
I0
aF4.8500000000000005
aF3.8600000000000003
aF3.91
aF3.66
aF3.6
aF4.26
aF4.160000000000001
aF3.6
aF3.7800000000000007
aF4.5
aI0
aF4.46
aF4.22
aF3.9
aF4.22
aF4.08
aI0
asg6
g7
sg8
VSFO
p606
sg10
I11239
sg11
g602
sbsVGesicki, Mike
p607
(i__main__
Player
p608
(dp609
g4
(lp610
I0
aF4.09
aF5.200000000000001
aF5.460000000000001
aF4.24
aF5.24
aF4.42
aF5.3500000000000005
aF5.290000000000001
aF5.200000000000001
aF5.3100000000000005
aI0
aF5.280000000000001
aF4.46
aF4.24
aF4.21
aF4.34
aI0
asg6
g16
sg8
VMIA
p611
sg10
I13672
sg11
g607
sbsVGonzalez, Zane
p612
(i__main__
Player
p613
(dp614
g4
(lp615
I0
aF4.6
aF4.8
aF4.699999999999999
aF5.199999999999999
aF4.699999999999999
aF4.3
aF4.8
aF4.6
aF4.699999999999999
aF4.6
aI0
aF4.699999999999999
aF5.300000000000001
aF4.699999999999999
aF4.6
aF4.699999999999999
aI0
asg6
g145
sg8
VCLE
p616
sg10
I13347
sg11
g612
sbsVHolmes, Gabe
p617
(i__main__
Player
p618
(dp619
g4
(lp620
I0
aF0.66
aF0.66
aF0.61
aF0.5599999999999999
aF0.68
aF0.5700000000000001
aF0.67
aF0.68
aI0
aF0.61
aF0.7000000000000001
aF0.63
aF0.6900000000000001
aF0.6900000000000001
aF0.6400000000000001
aF0.66
aI0
asg6
g16
sg8
VARZ
p621
sg10
I12499
sg11
g617
sbsVBarber, Peyton
p622
(i__main__
Player
p623
(dp624
g4
(lp625
I0
aF8.780000000000001
aF8.190000000000001
aF8.98
aF8.280000000000001
aI0
aF8.190000000000001
aF9.020000000000001
aF10.280000000000001
aF8.470000000000002
aF9.280000000000001
aF9.100000000000001
aF8.060000000000002
aF8.470000000000002
aF8.780000000000001
aF9.000000000000002
aF8.5
aI0
asg6
g38
sg8
VTBB
p626
sg10
I12637
sg11
g622
sbsVWashington, Dwayne
p627
(i__main__
Player
p628
(dp629
g4
(lp630
I0
aF1.1900000000000002
aF1.02
aF1.09
aF1.12
aF1.06
aI0
aF1.25
aF1.12
aF1.04
aF1.17
aF1.09
aF1.17
aF1.1400000000000001
aF1.07
aF1.3800000000000001
aF1.04
aI0
asg6
g38
sg8
VDET
p631
sg10
I12845
sg11
g627
sbsVKirk, Christian
p632
(i__main__
Player
p633
(dp634
g4
(lp635
I0
aF2.9900000000000007
aF3.06
aF2.9900000000000007
aF3.1000000000000005
aF3.1700000000000004
aF2.8000000000000003
aF2.85
aF3.1700000000000004
aI0
aF2.86
aF2.76
aF2.62
aF3.1200000000000006
aF2.85
aF3.02
aF3.06
aI0
asg6
g7
sg8
VARZ
p636
sg10
I13633
sg11
g632
sbsVPettis, Dante
p637
(i__main__
Player
p638
(dp639
g4
(lp640
I0
aF0.11000000000000001
aF0.11000000000000001
aF0.11000000000000001
aF0.1
aF0.09000000000000001
aF0.12
aF0.11000000000000001
aF0.09000000000000001
aF0.1
aF0.12
aI0
aF0.12
aF0.13
aF0.11000000000000001
aF0.13
aF0.11000000000000001
aI0
asg6
g7
sg8
VSFO
p641
sg10
I13634
sg11
g637
sbsVCarr, Austin
p642
(i__main__
Player
p643
(dp644
g4
(lp645
I0
aF0.010000000000000002
aF0.010000000000000002
aF0.010000000000000002
aF0.010000000000000002
aF0.010000000000000002
aI0
aF0.010000000000000002
aF0.010000000000000002
aF0.010000000000000002
aF0.010000000000000002
aF0.010000000000000002
aF0.010000000000000002
aF0.010000000000000002
aF0.010000000000000002
aF0.020000000000000004
aF0.010000000000000002
aI0
asg6
g7
sg8
VNOR
p646
sg10
I13367
sg11
g642
sbsVBeathard, C.J.
p647
(i__main__
Player
p648
(dp649
g4
(lp650
I0
aF2.8579999999999997
aF2.786
aF2.498
aF1.8940000000000001
aF2.0300000000000002
aF2.8560000000000003
aF2.51
aF2.0300000000000002
aF2.498
aF2.948
aI0
aF2.5999999999999996
aF2.46
aF2.606
aF2.46
aF2.438
aI0
asg6
g27
sg8
VSFO
p651
sg10
I13125
sg11
g647
sbsVEdmunds, Trey
p652
(i__main__
Player
p653
(dp654
g4
(lp655
I0
aF1.02
aF1.02
aF1.02
aF1.02
aF0.005000000000000001
aI0
aF0.005000000000000001
aF0.007000000000000001
aF0.005000000000000001
aF0.005000000000000001
aF0.004
aF0.004
aF0.004
aF0.004
aF0.004
aF0.005000000000000001
aI0
asg6
g38
sg8
VNOR
p656
sg10
I13452
sg11
g652
sbsVSeferian-Jenkins, Austin
p657
(i__main__
Player
p658
(dp659
g4
(lp660
I0
aF4.38
aF3.5200000000000005
aF4.54
aF4.46
aF4.37
aF4.52
aF4.62
aF4.29
aI0
aF4.66
aF4.3
aF4.4799999999999995
aF4.66
aF4.54
aF4.49
aF4.800000000000001
aI0
asg6
g16
sg8
VJAC
p661
sg10
I11697
sg11
g657
sbsVHumphries, Adam
p662
(i__main__
Player
p663
(dp664
g4
(lp665
I0
aF4.450000000000001
aF4.6400000000000015
aF4.760000000000001
aF4.5200000000000005
aI0
aF4.600000000000001
aF4.440000000000001
aF4.180000000000001
aF5.430000000000001
aF4.510000000000001
aF4.830000000000001
aF4.710000000000001
aF5.430000000000001
aF4.6400000000000015
aF4.350000000000001
aF4.660000000000001
aI0
asg6
g7
sg8
VTBB
p666
sg10
I12505
sg11
g662
sbsVMack, Marlon
p667
(i__main__
Player
p668
(dp669
g4
(lp670
I0
aF8.82
aF9.690000000000001
aF8.850000000000001
aF9.71
aF9.06
aF9.57
aF10.470000000000002
aF9.06
aI0
aF9.149999999999999
aF9.21
aF9.850000000000001
aF9.149999999999999
aF9.71
aF9.14
aF9.5
aI0
asg6
g38
sg8
VIND
p671
sg10
I13234
sg11
g667
sbsVHill, Josh
p672
(i__main__
Player
p673
(dp674
g4
(lp675
I0
aF1.0430000000000001
aF1.3430000000000002
aF1.2560000000000002
aF1.3710000000000002
aF1.308
aI0
aF1.1680000000000001
aF1.0440000000000003
aF1.3940000000000001
aF1.3619999999999999
aF1.1400000000000001
aF1.2560000000000002
aF1.334
aF1.0430000000000001
aF1.25
aF1.1490000000000002
aI0
asg6
g16
sg8
VNOR
p676
sg10
I11529
sg11
g672
sbsVThompson, Deonte
p677
(i__main__
Player
p678
(dp679
g4
(lp680
I0
aF2.712
aF2.148
aF2.078
aF1.91
aF2.1870000000000003
aF1.989
aF1.95
aI0
aF2.1180000000000003
aF2.009
aF2.019
aF1.95
aF2.0540000000000003
aF2.009
aF2.049
aF2.3480000000000003
aI0
asg6
g7
sg8
VDAL
p681
sg10
I10956
sg11
g677
sbsVThomas, Logan
p682
(i__main__
Player
p683
(dp684
g4
(lp685
I0
aF0.44000000000000006
aF0.47000000000000003
aF0.42000000000000004
aF0.5
aF0.49000000000000005
aF0.5
aF0.49000000000000005
aF0.42000000000000004
aF0.46
aF0.5
aI0
aF0.45
aF0.52
aF0.5
aF0.51
aF0.42000000000000004
aI0
asg6
g16
sg8
VBUF
p686
sg10
I11647
sg11
g682
sbsVCrabtree, Michael
p687
(i__main__
Player
p688
(dp689
g4
(lp690
I0
aF6.82
aF7.42
aF7.52
aF8.100000000000001
aF7.75
aF8.18
aF7.95
aF9.43
aF8.100000000000001
aI0
aF7.42
aF6.950000000000001
aF7.890000000000001
aF7.5600000000000005
aF8.21
aF6.630000000000001
aI0
asg6
g7
sg8
VBAL
p691
sg10
I9427
sg11
g687
sbsVGentry, Tanner
p692
(i__main__
Player
p693
(dp694
g4
(lp695
I0
aF0.03
aF0.03
aF0.020000000000000004
aF0.13
aI0
aF0.03
aF0.03
aF0.03
aF0.03
aF0.03
aF0.03
aF0.03
aF0.03
aF0.03
aF0.03
aF0.03
aI0
asg6
g7
sg8
VCHI
p696
sg10
I13372
sg11
g692
sbsVClay, Charles
p697
(i__main__
Player
p698
(dp699
g4
(lp700
I0
aF4.16
aF3.5700000000000003
aF3.1700000000000004
aF3.8600000000000003
aF3.7600000000000002
aF3.84
aF3.8000000000000003
aF3.1200000000000006
aF3.4600000000000004
aF3.63
aI0
aF3.3200000000000003
aF4.14
aF3.63
aF3.9200000000000004
aF3.1200000000000006
aI0
asg6
g16
sg8
VBUF
p701
sg10
I10409
sg11
g697
sbsVDaniels, Darrell
p702
(i__main__
Player
p703
(dp704
g4
(lp705
I0
aF0.05
aF0.05
aF0.05
aF0.05
aF0.04000000000000001
aF0.05
aF0.05
aF0.05
aI0
aF0.06
aF0.05
aF0.06
aF0.06
aF0.05
aF0.05
aF0.05
aI0
asg6
g16
sg8
VIND
p706
sg10
I13396
sg11
g702
sbsVKearse, Jermaine
p707
(i__main__
Player
p708
(dp709
g4
(lp710
I0
aF4.250000000000001
aF4.130000000000001
aF4.370000000000001
aF4.380000000000001
aF4.24
aF4.49
aF4.2700000000000005
aF4.470000000000001
aF4.130000000000001
aF4.130000000000001
aI0
aF4.58
aF4.640000000000001
aF4.130000000000001
aF5.34
aF4.550000000000001
aI0
asg6
g7
sg8
VNYJ
p711
sg10
I11076
sg11
g707
sbsVCrowell, Isaiah
p712
(i__main__
Player
p713
(dp714
g4
(lp715
I0
aF7.430000000000001
aF7.340000000000001
aF6.279999999999999
aF6.16
aF5.890000000000001
aF6.07
aF5.680000000000001
aF5.720000000000001
aF7.340000000000001
aF7.92
aI0
aF5.870000000000001
aF5.960000000000001
aF7.92
aF6.530000000000001
aF6.07
aI0
asg6
g38
sg8
VNYJ
p716
sg10
I11668
sg11
g712
sbsVWatson, Benjamin
p717
(i__main__
Player
p718
(dp719
g4
(lp720
I0
aF3.8300000000000005
aF3.7600000000000007
aF3.5900000000000003
aF3.7500000000000004
aF3.6800000000000006
aI0
aF2.84
aF2.6500000000000004
aF3.64
aF3.72
aF2.7600000000000002
aF3.5900000000000003
aF3.6500000000000004
aF2.7
aF2.8200000000000003
aF2.7800000000000002
aI0
asg6
g16
sg8
VNOR
p721
sg10
I7422
sg11
g717
sbsVBillingsley, Jace
p722
(i__main__
Player
p723
(dp724
g4
(lp725
I0
aI0
aI0
aI0
aF0.020000000000000004
aI0
aI0
aI0
aI0
aI0
aI0
aI0
aI0
aI0
aI0
aI0
aI0
aI0
asg6
g7
sg8
VDET
p726
sg10
I12932
sg11
g722
sbsVFreeman, Devonta
p727
(i__main__
Player
p728
(dp729
g4
(lp730
I0
aF11.950000000000001
aF10.99
aF11.37
aF13.46
aF12.709999999999999
aF11.37
aF12.78
aI0
aF13.03
aF12.749999999999998
aF11.040000000000001
aF11.37
aF12.72
aF11.79
aF10.82
aF10.99
aI0
asg6
g38
sg8
VATL
p731
sg10
I11660
sg11
g727
sbsVBailey, Dan
p732
(i__main__
Player
p733
(dp734
g4
(lp735
I0
aF5.8100000000000005
aF6.109999999999999
aF7.109999999999999
aF6.51
aF7.039999999999999
aF5.51
aF6.9399999999999995
aI0
aF6.9399999999999995
aF5.58
aF5.379999999999999
aF6.9399999999999995
aF6.41
aF5.58
aF5.8100000000000005
aF6.41
aI0
asg6
g145
sg8
VDAL
p736
sg10
I10506
sg11
g732
sbsVClement, Corey
p737
(i__main__
Player
p738
(dp739
g4
(lp740
I0
aF5.560000000000001
aF6.180000000000001
aF6.150000000000001
aF6.0600000000000005
aF5.73
aF6.260000000000001
aF5.910000000000001
aF6.110000000000001
aI0
aF6.090000000000001
aF6.210000000000001
aF6.260000000000001
aF6.53
aF6.090000000000001
aF6.200000000000001
aF6.550000000000002
aI0
asg6
g38
sg8
VPHI
p741
sg10
I13136
sg11
g737
sbsVHenderson, De'Angelo
p742
(i__main__
Player
p743
(dp744
g4
(lp745
I0
aF0.30000000000000004
aF0.29000000000000004
aF0.30000000000000004
aF0.48
aF0.32000000000000006
aF0.30000000000000004
aF0.28
aF0.48
aF0.32
aI0
aF0.32
aF0.30000000000000004
aF0.33
aF0.27
aF0.30000000000000004
aF0.29000000000000004
aI0
asg6
g38
sg8
VDEN
p746
sg10
I13334
sg11
g742
sbsVJones, Zay
p747
(i__main__
Player
p748
(dp749
g4
(lp750
I0
aF2.35
aF2.209
aF2.33
aF2.55
aF2.6
aF2.66
aF2.41
aF2.5100000000000002
aF2.5
aF2.5300000000000002
aI0
aF2.4200000000000004
aF2.29
aF2.5300000000000002
aF2.3200000000000003
aF2.5100000000000002
aI0
asg6
g7
sg8
VBUF
p751
sg10
I13176
sg11
g747
sbsVTrubisky, Mitchell
p752
(i__main__
Player
p753
(dp754
g4
(lp755
I0
aF13.212000000000002
aF10.652
aF10.58
aF10.958
aI0
aF13.592
aF10.606
aF13.19
aF9.702000000000002
aF13.182
aF9.316
aF13.182
aF13.633999999999999
aF10.804
aF13.371999999999998
aF13.406
aI0
asg6
g27
sg8
VCHI
p756
sg10
I13115
sg11
g752
sbsVPowell, Bilal
p757
(i__main__
Player
p758
(dp759
g4
(lp760
I0
aF9.11
aF8.68
aF8.129999999999999
aF7.960000000000001
aF7.670000000000001
aF7.899999999999999
aF7.42
aF7.500000000000001
aF8.68
aF9.46
aI0
aF7.64
aF7.76
aF9.46
aF8.43
aF7.84
aI0
asg6
g38
sg8
VNYJ
p761
sg10
I10369
sg11
g757
sbsVTye, Will
p762
(i__main__
Player
p763
(dp764
g4
(lp765
I0
aF0.9400000000000001
aF0.76
aF0.9500000000000001
aF0.9500000000000001
aF0.8900000000000001
aF0.8
aF0.79
aF0.8900000000000001
aF0.9
aF0.8800000000000001
aI0
aF0.8500000000000001
aF0.71
aF0.9500000000000001
aF0.79
aF0.8900000000000001
aI0
asg6
g16
sg8
VNEP
p766
sg10
I12532
sg11
g762
sbsVArtis-Payne, Cameron
p767
(i__main__
Player
p768
(dp769
g4
(lp770
I0
aF0.7
aF0.6699999999999999
aF0.8300000000000001
aI0
aF0.74
aF0.81
aF0.6299999999999999
aF0.73
aF0.72
aF0.73
aF0.8
aF0.71
aF0.72
aF0.74
aF0.69
aF0.6699999999999999
aI0
asg6
g38
sg8
VCAR
p771
sg10
I12161
sg11
g767
sbsVGresham, Jermaine
p772
(i__main__
Player
p773
(dp774
g4
(lp775
I0
aF2.12
aF2.13
aF1.98
aF2.06
aF2.3600000000000003
aF1.8199999999999998
aF2.2
aF2.3600000000000003
aI0
aF2.0
aF2.2800000000000002
aF2.1
aF2.26
aF2.29
aF2.16
aF2.13
aI0
asg6
g16
sg8
VARZ
p776
sg10
I9838
sg11
g772
sbsVToussaint, Fitzgerald
p777
(i__main__
Player
p778
(dp779
g4
(lp780
I0
aF0.17000000000000004
aF0.06
aF0.07
aF0.06
aF0.06
aF0.07
aI0
aF0.19
aF0.06
aF0.06
aF0.06
aF0.06
aF0.07
aF0.06
aF0.07
aF0.07
aI0
asg6
g38
sg8
VPIT
p781
sg10
I12009
sg11
g777
sbsVAllen, Javorius
p782
(i__main__
Player
p783
(dp784
g4
(lp785
I0
aF9.040000000000001
aF7.989999999999999
aF7.1499999999999995
aF7.590000000000001
aF7.6000000000000005
aF7.24
aF7.36
aF7.1000000000000005
aF7.590000000000001
aI0
aF7.989999999999999
aF7.1499999999999995
aF6.89
aF7.2
aF7.319999999999999
aF7.34
aI0
asg6
g38
sg8
VBAL
p786
sg10
I12159
sg11
g782
sbsVJones, T.J.
p787
(i__main__
Player
p788
(dp789
g4
(lp790
I0
aF2.3
aF2.6
aF2.54
aF2.56
aF2.54
aI0
aF2.29
aF2.52
aF2.3
aF2.5900000000000003
aF2.99
aF2.5900000000000003
aF2.48
aF2.21
aF2.2600000000000002
aF2.3
aI0
asg6
g7
sg8
VDET
p791
sg10
I11686
sg11
g787
sbsVMcKinnon, Jerick
p792
(i__main__
Player
p793
(dp794
g4
(lp795
I0
aF8.38
aF10.290000000000001
aF8.809999999999999
aF9.0
aF8.540000000000001
aF8.89
aF9.670000000000002
aF8.540000000000001
aF8.68
aF9.88
aI0
aF8.899999999999999
aF9.120000000000001
aF8.72
aF9.120000000000001
aF8.46
aI0
asg6
g38
sg8
VSFO
p796
sg10
I11761
sg11
g792
sbsVLockett, Tyler
p797
(i__main__
Player
p798
(dp799
g4
(lp800
I0
aF4.890000000000001
aF5.1000000000000005
aF5.19
aF4.59
aF4.99
aF4.7700000000000005
aI0
aF4.85
aF4.640000000000001
aF4.99
aF5.15
aF5.869999999999999
aF5.23
aF4.870000000000001
aF5.23
aF4.9
aI0
asg6
g7
sg8
VSEA
p801
sg10
I12187
sg11
g797
sbsVThompson, Chris
p802
(i__main__
Player
p803
(dp804
g4
(lp805
I0
aF5.61
aF5.86
aF5.79
aI0
aF5.909999999999999
aF5.7
aF5.7700000000000005
aF5.930000000000001
aF5.580000000000001
aF5.8999999999999995
aF6.2
aF5.7700000000000005
aF5.54
aF5.930000000000001
aF5.830000000000001
aF5.7700000000000005
aI0
asg6
g38
sg8
VWAS
p806
sg10
I11186
sg11
g802
sbsVJaguars, Jacksonville
p807
(i__main__
Player
p808
(dp809
g4
(lp810
I0
aF8.5
aF6.6000000000000005
aF8.900000000000002
aF8.900000000000002
aF6.7
aF9.700000000000001
aF12.8
aF6.7
aI0
aF9.3
aF6.3
aF8.8
aF9.3
aF8.900000000000002
aF8.4
aF8.900000000000002
aI0
asg6
g89
sg8
VJAC
p811
sg10
I509
sg11
g807
sbsVBowman, Braedon
p812
(i__main__
Player
p813
(dp814
g4
(lp815
I0
aF1.4900000000000002
aF1.4
aF1.42
aF1.45
aF1.4700000000000002
aF1.45
aF1.4100000000000001
aI0
aF1.25
aF1.4700000000000002
aF1.4
aF1.37
aF1.2600000000000002
aF1.44
aF1.4900000000000002
aF1.27
aI0
asg6
g16
sg8
VLAC
p816
sg10
I12954
sg11
g812
sbsVDrake, Kenyan
p817
(i__main__
Player
p818
(dp819
g4
(lp820
I0
aF10.290000000000001
aF10.270000000000003
aF9.510000000000002
aF9.600000000000001
aF11.100000000000001
aF9.23
aF10.940000000000001
aF10.580000000000002
aF10.270000000000003
aF9.77
aI0
aF9.860000000000003
aF12.72
aF9.600000000000001
aF8.510000000000002
aF9.780000000000001
aI0
asg6
g38
sg8
VMIA
p821
sg10
I12630
sg11
g817
sbsVMartin, Robert
p822
(i__main__
Player
p823
(dp824
g4
(lp825
I0
aF0.13999999999999999
aF0.147
aF0.16000000000000003
aF0.15000000000000002
aF0.13999999999999999
aF0.12
aF0.13
aF0.17
aI0
aF0.13
aF0.15000000000000002
aF0.12
aF0.13
aF0.17
aF0.13999999999999999
aF0.13999999999999999
aI0
asg6
g38
sg8
VNYG
p826
sg10
I13896
sg11
g822
sbsVTaylor, Trent
p827
(i__main__
Player
p828
(dp829
g4
(lp830
I0
aF2.8400000000000003
aF2.28
aF2.31
aF2.11
aF2.12
aF2.4699999999999998
aF2.3800000000000003
aF2.12
aF2.1799999999999997
aF2.65
aI0
aF2.66
aF2.46
aF2.3000000000000003
aF2.46
aF2.44
aI0
asg6
g7
sg8
VSFO
p831
sg10
I13316
sg11
g827
sbsVWestbrook, Dede
p832
(i__main__
Player
p833
(dp834
g4
(lp835
I0
aF5.7
aF5.46
aF5.63
aF5.2700000000000005
aF5.2
aF5.5600000000000005
aF5.7700000000000005
aF5.53
aI0
aF5.540000000000001
aF5.64
aF4.940000000000001
aF5.540000000000001
aF5.63
aF5.390000000000001
aF4.470000000000001
aI0
asg6
g7
sg8
VJAC
p836
sg10
I13158
sg11
g832
sbsVFairbairn, Ka'imi
p837
(i__main__
Player
p838
(dp839
g4
(lp840
I0
aF6.33
aF5.630000000000001
aF5.130000000000001
aF5.029999999999999
aF3.8300000000000005
aF5.23
aF5.029999999999999
aF5.23
aF4.529999999999999
aI0
aF5.630000000000001
aF5.630000000000001
aF5.130000000000001
aF5.029999999999999
aF5.130000000000001
aF4.43
aI0
asg6
g145
sg8
VHOU
p841
sg10
I12860
sg11
g837
sbsVDavis, Vernon
p842
(i__main__
Player
p843
(dp844
g4
(lp845
I0
aF5.2
aF4.82
aF4.860000000000001
aI0
aF3.63
aF3.6800000000000006
aF4.05
aF4.78
aF4.63
aF3.4400000000000004
aF4.840000000000001
aF4.05
aF3.5200000000000005
aF4.78
aF3.54
aF4.74
aI0
asg6
g16
sg8
VWAS
p846
sg10
I8247
sg11
g842
sbsVWhite, Mike
p847
(i__main__
Player
p848
(dp849
g4
(lp850
I0
aI0
aI0
aI0
aI0
aI0
aI0
aI0
aI0
aI0
aF-0.06
aI0
aI0
aI0
aF-0.06
aI0
aI0
aI0
asg6
g27
sg8
VDAL
p851
sg10
I13598
sg11
g847
sbsVWoods, Robert
p852
(i__main__
Player
p853
(dp854
g4
(lp855
I0
aF7.170000000000001
aF6.95
aF6.98
aF7.36
aF7.840000000000001
aF7.36
aF7.9399999999999995
aF7.86
aF7.86
aF7.840000000000001
aF7.390000000000001
aI0
aF7.31
aF7.710000000000001
aF7.82
aF6.95
aI0
asg6
g7
sg8
VLAR
p856
sg10
I11228
sg11
g852
sbsVFreeman, Royce
p857
(i__main__
Player
p858
(dp859
g4
(lp860
I0
aF4.61
aF5.31
aF5.529999999999999
aF5.39
aF5.529999999999999
aF5.44
aF5.16
aF5.39
aF5.78
aI0
aF5.370000000000001
aF5.5200000000000005
aF5.92
aF5.0200000000000005
aF5.55
aF5.31
aI0
asg6
g38
sg8
VDEN
p861
sg10
I13617
sg11
g857
sbsVEvans, Mike
p862
(i__main__
Player
p863
(dp864
g4
(lp865
I0
aF9.48
aF9.450000000000001
aF10.22
aF9.31
aI0
aF9.43
aF9.170000000000002
aF8.8
aF11.1
aF9.270000000000001
aF10.280000000000001
aF10.16
aF11.1
aF9.4
aF9.040000000000001
aF9.48
aI0
asg6
g7
sg8
VTBB
p866
sg10
I11671
sg11
g862
sbsVPerry, Senorise
p867
(i__main__
Player
p868
(dp869
g4
(lp870
I0
aI0
aI0
aI0
aI0
aI0
aI0
aI0
aI0
aI0
aI0
aI0
aI0
aF0.015000000000000003
aI0
aI0
aI0
aI0
asg6
g38
sg8
VMIA
p871
sg10
I11964
sg11
g867
sbsVMcGuire, Elijah
p872
(i__main__
Player
p873
(dp874
g4
(lp875
I0
aF3.49
aF3.45
aF3.21
aF3.1700000000000004
aF2.93
aF3.0100000000000002
aF2.83
aF2.8600000000000003
aF3.45
aF3.7100000000000004
aI0
aF2.95
aF2.9699999999999998
aF3.7100000000000004
aF3.37
aF3.0000000000000004
aI0
asg6
g38
sg8
VNYJ
p876
sg10
I13144
sg11
g872
sbsVEllison, Rhett
p877
(i__main__
Player
p878
(dp879
g4
(lp880
I0
aF1.58
aF1.8000000000000003
aF1.87
aF1.6099999999999999
aF1.6400000000000001
aF1.58
aF1.8000000000000003
aF1.7400000000000002
aI0
aF1.8399999999999999
aF1.56
aF1.58
aF1.63
aF1.7400000000000002
aF1.83
aF1.85
aI0
asg6
g16
sg8
VNYG
p881
sg10
I10838
sg11
g877
sbsVWilson, Shaun
p882
(i__main__
Player
p883
(dp884
g4
(lp885
I0
aF-0.010000000000000002
aF-0.003
aF-0.003
aF-0.003
aI0
aF0.06999999999999999
aF-0.003
aF-0.004
aF0.001
aF-0.003
aF-0.003
aF-0.003
aF0.001
aF-0.010000000000000002
aF-0.003
aF-0.003
aI0
asg6
g38
sg8
VTBB
p886
sg10
I13874
sg11
g882
sbsVSlater, Matt
p887
(i__main__
Player
p888
(dp889
g4
(lp890
I0
aI0
aI0
aI0
aI0
aI0
aI0
aI0
aF0.020000000000000004
aI0
aI0
aI0
aI0
aI0
aI0
aI0
aF0.020000000000000004
aI0
asg6
g7
sg8
VNEP
p891
sg10
I9200
sg11
g887
sbsVHoyer, Brian
p892
(i__main__
Player
p893
(dp894
g4
(lp895
I0
aF0.677
aF0.574
aF0.681
aF0.7000000000000001
aF0.706
aF0.565
aF0.5479999999999999
aF0.44
aF0.711
aF0.635
aI0
aF0.676
aF0.443
aF0.7000000000000001
aF0.609
aF0.44
aI0
asg6
g27
sg8
VNEP
p896
sg10
I9714
sg11
g892
sbsVBullock, Randy
p897
(i__main__
Player
p898
(dp899
g4
(lp900
I0
aF5.1
aF5.1
aF5.4
aF5.0
aF6.25
aF5.0
aF5.1
aF6.15
aI0
aF6.15
aF5.1
aF5.800000000000001
aF5.0
aF5.0
aF6.35
aF5.800000000000001
aI0
asg6
g145
sg8
VCIN
p901
sg10
I10862
sg11
g897
sbsVFells, Darren
p902
(i__main__
Player
p903
(dp904
g4
(lp905
I0
aF1.4300000000000002
aF1.51
aF1.57
aF1.6500000000000001
aF1.51
aF1.54
aF1.4
aF1.4300000000000002
aF1.4800000000000002
aF1.55
aI0
aF1.62
aF1.6
aF1.6
aF1.58
aF1.62
aI0
asg6
g16
sg8
VCLE
p906
sg10
I11337
sg11
g902
sbsVGarcon, Pierre
p907
(i__main__
Player
p908
(dp909
g4
(lp910
I0
aF7.000000000000001
aF6.960000000000001
aF7.040000000000001
aF6.61
aF6.570000000000001
aF7.57
aF7.32
aF6.570000000000001
aF6.82
aF7.81
aI0
aF7.85
aF7.49
aF7.0200000000000005
aF7.49
aF7.3500000000000005
aI0
asg6
g7
sg8
VSFO
p911
sg10
I9250
sg11
g907
sbsVHikutini, Cole
p912
(i__main__
Player
p913
(dp914
g4
(lp915
I0
aF0.09000000000000001
aF0.09000000000000001
aF0.08000000000000002
aF0.08000000000000002
aF0.06999999999999999
aF0.09000000000000001
aF0.08000000000000002
aF0.06999999999999999
aF0.09000000000000001
aF0.08000000000000002
aI0
aF0.06999999999999999
aF0.06999999999999999
aF0.08000000000000002
aF0.06999999999999999
aF0.06999999999999999
aI0
asg6
g16
sg8
VSFO
p916
sg10
I13511
sg11
g912
sbsVAllen, Dwayne
p917
(i__main__
Player
p918
(dp919
g4
(lp920
I0
aF1.02
aF0.71
aF0.8500000000000001
aF0.88
aF0.84
aF0.73
aF0.73
aF0.8300000000000001
aF0.8500000000000001
aF0.8300000000000001
aI0
aF0.82
aF0.6900000000000001
aF0.88
aF0.7200000000000001
aF0.8300000000000001
aI0
asg6
g16
sg8
VNEP
p921
sg10
I10742
sg11
g917
sbsVKerley, Jeremy
p922
(i__main__
Player
p923
(dp924
g4
(lp925
I0
aF3.25
aF2.98
aF3.2100000000000004
aF3.5200000000000005
aF3.6
aF3.7
aF3.41
aF3.48
aF3.39
aF3.47
aI0
aF3.34
aF3.1
aF3.47
aF3.19
aF3.48
aI0
asg6
g7
sg8
VBUF
p926
sg10
I10392
sg11
g922
sbsVThomas, Mike
p927
(i__main__
Player
p928
(dp929
g4
(lp930
I0
aF0.26
aF0.25000000000000006
aF0.22000000000000006
aF0.27
aF0.31000000000000005
aF0.27
aF0.42999999999999994
aF0.3
aF0.3
aF0.31000000000000005
aF0.27
aI0
aF0.27
aF0.29000000000000004
aF0.3
aF0.25000000000000006
aI0
asg6
g7
sg8
VLAR
p931
sg10
I12675
sg11
g927
sbsVCarr, Derek
p932
(i__main__
Player
p933
(dp934
g4
(lp935
I0
aF14.136
aF14.658
aF17.514000000000003
aF16.784000000000002
aF11.9
aF13.629999999999999
aI0
aF15.545999999999998
aF16.734
aF11.9
aF13.532000000000002
aF12.062
aF14.202
aF15.377999999999998
aF16.374000000000002
aF14.658
aI0
asg6
g27
sg8
VOAK
p936
sg10
I11644
sg11
g932
sbsVBrissett, Jacoby
p937
(i__main__
Player
p938
(dp939
g4
(lp940
I0
aF4.924
aF3.8680000000000003
aF3.754
aF4.800000000000001
aF3.864
aF4.8100000000000005
aF3.5799999999999996
aF3.918
aI0
aF3.9739999999999993
aF4.638
aF4.874
aF3.9739999999999993
aF4.800000000000001
aF4.546
aF4.882000000000001
aI0
asg6
g27
sg8
VIND
p941
sg10
I12616
sg11
g937
sbsVTraylor, Austin
p942
(i__main__
Player
p943
(dp944
g4
(lp945
I0
aF1.01
aF1.04
aF0.8800000000000001
aF0.8900000000000001
aF0.9300000000000002
aF0.97
aF0.9199999999999999
aF0.8900000000000001
aF0.9900000000000001
aI0
aF0.96
aF0.86
aF1.03
aF1.0
aF0.9800000000000001
aF1.04
aI0
asg6
g16
sg8
VDEN
p946
sg10
I13534
sg11
g942
sbsVCole, Keelan
p947
(i__main__
Player
p948
(dp949
g4
(lp950
I0
aF8.41
aF7.490000000000001
aF8.37
aF7.200000000000001
aF7.080000000000002
aF8.19
aF8.52
aF8.149999999999999
aI0
aF8.08
aF8.26
aF6.780000000000001
aF8.08
aF8.37
aF7.350000000000001
aF6.900000000000001
aI0
asg6
g7
sg8
VJAC
p951
sg10
I13412
sg11
g947
sbsVPrescott, Dak
p952
(i__main__
Player
p953
(dp954
g4
(lp955
I0
aF19.354000000000003
aF19.462000000000003
aF15.868
aF18.742000000000004
aF19.380000000000003
aF16.259999999999998
aF15.992000000000003
aI0
aF18.364000000000004
aF15.089999999999998
aF18.796000000000003
aF15.992000000000003
aF16.964000000000002
aF15.089999999999998
aF17.122000000000003
aF16.384
aI0
asg6
g27
sg8
VDAL
p956
sg10
I12620
sg11
g952
sbsVStanton, Drew
p957
(i__main__
Player
p958
(dp959
g4
(lp960
I0
aF-0.000999999999999994
aF-0.009000000000000001
aF-0.005999999999999998
aF-0.028999999999999998
aF-0.09699999999999999
aF-0.032999999999999995
aF-0.028999999999999998
aF-0.009000000000000001
aF-0.028999999999999998
aF-0.005999999999999998
aI0
aF-0.005999999999999998
aF-0.005999999999999998
aF-0.005999999999999998
aF-0.028999999999999998
aF-0.005999999999999998
aI0
asg6
g27
sg8
VCLE
p961
sg10
I8712
sg11
g957
sbsVHill, Brian
p962
(i__main__
Player
p963
(dp964
g4
(lp965
I0
aF0.16
aF0.16
aF0.16
aF0.16
aF0.18000000000000002
aF0.16
aF0.16
aF0.16
aI0
aF0.16
aF0.16
aF0.16999999999999998
aF0.16
aF0.16
aF0.16
aF0.16999999999999998
aI0
asg6
g38
sg8
VCIN
p966
sg10
I13240
sg11
g962
sbsVBuccaneers, Tampa Bay
p967
(i__main__
Player
p968
(dp969
g4
(lp970
I0
aF5.1
aF5.1
aF4.8
aF7.1000000000000005
aI0
aF5.1
aF8.6
aF6.8
aF4.6
aF6.5
aF6.7
aF5.2
aF4.6
aF5.1
aF4.6
aF8.1
aI0
asg6
g89
sg8
VTBB
p971
sg10
I525
sg11
g967
sbsVKittle, George
p972
(i__main__
Player
p973
(dp974
g4
(lp975
I0
aF3.0800000000000005
aF5.19
aF4.79
aF4.86
aF4.8500000000000005
aF5.140000000000001
aF5.03
aF4.8500000000000005
aF5.170000000000001
aF5.140000000000001
aI0
aF4.57
aF4.63
aF5.03
aF4.63
aF4.73
aI0
asg6
g16
sg8
VSFO
p976
sg10
I13299
sg11
g972
sbsVBradford, Sam
p977
(i__main__
Player
p978
(dp979
g4
(lp980
I0
aF11.491999999999999
aF6.66
aF6.394
aF6.746
aF9.564
aF4.645999999999999
aF7.166
aF9.564
aI0
aF6.674
aF6.662
aF4.666
aF10.100000000000001
aF9.104
aF9.347999999999999
aF6.66
aI0
asg6
g27
sg8
VARZ
p981
sg10
I9817
sg11
g977
sbsVMcEvoy, Tanner
p982
(i__main__
Player
p983
(dp984
g4
(lp985
I0
aI0
aF0.33
aF0.33
aF0.29
aF0.31000000000000005
aF0.30000000000000004
aI0
aF0.31000000000000005
aF0.29
aF0.31000000000000005
aF0.33
aF0.4
aF0.39
aF0.31000000000000005
aF0.39
aF0.31000000000000005
aI0
asg6
g7
sg8
VSEA
p986
sg10
I12949
sg11
g982
sbsVRush, Cooper
p987
(i__main__
Player
p988
(dp989
g4
(lp990
I0
aF0.17400000000000002
aF0.17400000000000002
aF0.19600000000000004
aF0.17400000000000002
aF0.17400000000000002
aF0.19000000000000003
aF0.19600000000000004
aI0
aF0.184
aF0.252
aF0.17400000000000002
aF0.19600000000000004
aF0.18
aF0.252
aF0.18
aF0.19000000000000003
aI0
asg6
g27
sg8
VDAL
p991
sg10
I13124
sg11
g987
sbsVKelce, Travis
p992
(i__main__
Player
p993
(dp994
g4
(lp995
I0
aF9.355
aF8.965
aF10.626000000000001
aF10.586
aF8.905000000000001
aF8.417000000000002
aF10.596
aF10.586
aF10.456
aF9.456000000000001
aF10.426
aI0
aF10.776
aF9.145000000000001
aF9.355
aF8.995000000000001
aI0
asg6
g16
sg8
VKCC
p996
sg10
I11244
sg11
g992
sbsVDickson, Ed
p997
(i__main__
Player
p998
(dp999
g4
(lp1000
I0
aI0
aI0
aI0
aI0
aI0
aI0
aI0
aF5.3100000000000005
aF4.8500000000000005
aF5.0
aF5.0600000000000005
aF4.760000000000001
aF5.0600000000000005
aF3.9
aF5.0600000000000005
aF4.790000000000001
aI0
asg6
g16
sg8
VSEA
p1001
sg10
I9912
sg11
g997
sbsVRosas, Aldrick
p1002
(i__main__
Player
p1003
(dp1004
g4
(lp1005
I0
aF4.83
aF4.03
aF5.93
aF5.460000000000001
aF5.33
aF4.83
aF4.83
aF5.83
aI0
aF4.83
aF5.43
aF4.83
aF5.43
aF5.83
aF5.83
aF5.33
aI0
asg6
g145
sg8
VNYG
p1006
sg10
I13241
sg11
g1002
sbsVPerkins, Paul
p1007
(i__main__
Player
p1008
(dp1009
g4
(lp1010
I0
aI0
aI0
aI0
aI0
aI0
aI0
aF2.52
aF2.9700000000000006
aI0
aF2.4
aF2.7100000000000004
aF2.5300000000000002
aF2.53
aF2.9700000000000006
aF2.64
aF2.6999999999999997
aI0
asg6
g38
sg8
VNYG
p1011
sg10
I12631
sg11
g1007
sbsVLangford, Jeremy
p1012
(i__main__
Player
p1013
(dp1014
g4
(lp1015
I0
aF0.16999999999999998
aF0.18
aF0.16999999999999998
aF0.16000000000000003
aF0.23000000000000004
aF0.16000000000000003
aF0.21000000000000002
aF0.2
aF0.18
aF0.19
aI0
aF0.18
aF0.25
aF0.16000000000000003
aF0.19
aF0.16999999999999998
aI0
asg6
g38
sg8
VMIA
p1016
sg10
I12156
sg11
g1012
sbsVWilliams, Jonathan
p1017
(i__main__
Player
p1018
(dp1019
g4
(lp1020
I0
aF6.800000000000001
aF6.920000000000001
aF6.460000000000001
aF6.990000000000001
aF2.44
aI0
aF2.4000000000000004
aF2.04
aF2.27
aF2.5600000000000005
aF2.1100000000000003
aF2.17
aF2.25
aF2.3800000000000003
aF2.17
aF2.4000000000000004
aI0
asg6
g38
sg8
VNOR
p1021
sg10
I12635
sg11
g1017
sbsVRavens, Baltimore
p1022
(i__main__
Player
p1023
(dp1024
g4
(lp1025
I0
aF8.299999999999999
aF8.399999999999999
aF8.899999999999999
aF5.6000000000000005
aF10.100000000000001
aF8.5
aF5.8999999999999995
aF5.5
aF5.6000000000000005
aI0
aF8.399999999999999
aF8.399999999999999
aF6.2
aF6.2
aF8.299999999999999
aF5.5
aI0
asg6
g89
sg8
VBAL
p1026
sg10
I531
sg11
g1022
sbsVCarroo, Leonte
p1027
(i__main__
Player
p1028
(dp1029
g4
(lp1030
I0
aF0.06999999999999999
aF0.1
aF0.06
aF0.06
aF0.06
aF0.06
aF0.06
aF0.06999999999999999
aF0.1
aF0.06999999999999999
aI0
aF0.06
aF0.06
aF0.06
aF0.06
aF0.06
aI0
asg6
g7
sg8
VMIA
p1031
sg10
I12655
sg11
g1027
sbsVWilkins, Jordan
p1032
(i__main__
Player
p1033
(dp1034
g4
(lp1035
I0
aF0.020000000000000004
aF0.020000000000000004
aF0.010000000000000002
aF0.010000000000000002
aF0.010000000000000002
aF0.020000000000000004
aF0.020000000000000004
aF0.010000000000000002
aI0
aF0.010000000000000002
aF0.010000000000000002
aF0.020000000000000004
aF0.010000000000000002
aF0.010000000000000002
aF0.010000000000000002
aF0.010000000000000002
aI0
asg6
g38
sg8
VIND
p1036
sg10
I13789
sg11
g1032
sbsVKoyack, Ben
p1037
(i__main__
Player
p1038
(dp1039
g4
(lp1040
I0
aF0.48000000000000004
aF0.32
aF0.38000000000000006
aF0.37000000000000005
aF0.36000000000000004
aF0.38000000000000006
aF0.39
aF0.35
aI0
aF0.39
aF0.37000000000000005
aF0.49000000000000005
aF0.39
aF0.38000000000000006
aF0.38000000000000006
aF0.42000000000000004
aI0
asg6
g16
sg8
VJAC
p1041
sg10
I12209
sg11
g1037
sbsVValdes-Scantling, Marquez
p1042
(i__main__
Player
p1043
(dp1044
g4
(lp1045
I0
aF1.4500000000000002
aF1.4499999999999997
aF1.56
aF1.3900000000000001
aF1.4900000000000002
aF1.69
aI0
aF1.6099999999999999
aF1.65
aF1.42
aF1.71
aF1.4499999999999997
aF1.3599999999999999
aF1.6600000000000001
aF1.4500000000000002
aF1.48
aI0
asg6
g7
sg8
VGBP
p1046
sg10
I13793
sg11
g1042
sbsVParker, DeVante
p1047
(i__main__
Player
p1048
(dp1049
g4
(lp1050
I0
aF7.990000000000001
aF7.591
aF6.602
aF7.7810000000000015
aF6.621000000000001
aF7.121000000000001
aF6.761
aF8.210000000000003
aF7.591
aF7.86
aI0
aF7.761000000000002
aF6.652
aF7.7810000000000015
aF6.781
aF7.011
aI0
asg6
g7
sg8
VMIA
p1051
sg10
I12176
sg11
g1047
sbsVWright, Tim
p1052
(i__main__
Player
p1053
(dp1054
g4
(lp1055
I0
aF0.759
aF0.12
aF0.13999999999999999
aF0.12
aF0.11000000000000001
aF0.11000000000000001
aF0.13999999999999999
aF0.12
aF0.13
aF0.13
aF0.13
aI0
aF0.13999999999999999
aF0.12
aF0.13
aF0.12
aI0
asg6
g16
sg8
VKCC
p1056
sg10
I11526
sg11
g1052
sbsVCallaway, Antonio
p1057
(i__main__
Player
p1058
(dp1059
g4
(lp1060
I0
aF0.31
aF0.18000000000000005
aF0.18000000000000005
aF0.14
aF0.15000000000000002
aF0.13
aF0.21000000000000005
aF0.22000000000000006
aF0.15000000000000002
aF0.16999999999999998
aI0
aF0.13
aF0.23
aF0.25
aF0.15000000000000002
aF0.13
aI0
asg6
g7
sg8
VCLE
p1061
sg10
I13640
sg11
g1057
sbsVHiggins, Rashard
p1062
(i__main__
Player
p1063
(dp1064
g4
(lp1065
I0
aF3.3800000000000003
aF2.66
aF2.59
aF2.43
aF2.5700000000000003
aF2.34
aF2.81
aF3.3800000000000003
aF2.51
aF2.6399999999999997
aI0
aF2.43
aF2.82
aF3.7100000000000004
aF2.5
aF2.43
aI0
asg6
g7
sg8
VCLE
p1066
sg10
I12656
sg11
g1062
sbsVGinn Jr., Ted
p1067
(i__main__
Player
p1068
(dp1069
g4
(lp1070
I0
aF8.100000000000001
aF7.2
aF7.41
aF7.73
aF7.32
aI0
aF7.08
aF6.410000000000001
aF7.24
aF6.220000000000001
aF7.49
aF7.41
aF7.530000000000001
aF7.8
aF8.57
aF7.66
aI0
asg6
g7
sg8
VNOR
p1071
sg10
I8673
sg11
g1067
sbsVFitzgerald, Larry
p1072
(i__main__
Player
p1073
(dp1074
g4
(lp1075
I0
aF8.102000000000002
aF8.013
aF8.153
aF8.323
aF9.053000000000003
aF7.722
aF7.7620000000000005
aF9.053000000000003
aI0
aF7.792
aF7.5520000000000005
aF7.322
aF8.913000000000002
aF7.702
aF8.203000000000001
aF8.013
aI0
asg6
g7
sg8
VARZ
p1076
sg10
I7393
sg11
g1072
sbsVMoore, Chris
p1077
(i__main__
Player
p1078
(dp1079
g4
(lp1080
I0
aF1.3610000000000002
aF1.401
aF1.451
aF1.633
aF1.4689999999999999
aF1.561
aF1.5310000000000001
aF1.771
aF1.633
aI0
aF1.401
aF1.3610000000000002
aF1.5210000000000001
aF1.4609999999999999
aF1.641
aF1.331
aI0
asg6
g7
sg8
VBAL
p1081
sg10
I12773
sg11
g1077
sbsVNewsome, Detrez
p1082
(i__main__
Player
p1083
(dp1084
g4
(lp1085
I0
aF0.020000000000000004
aF0.03
aF0.020000000000000004
aF0.020000000000000004
aF0.020000000000000004
aF0.020000000000000004
aF0.020000000000000004
aI0
aF0.020000000000000004
aF0.020000000000000004
aF0.05
aF0.020000000000000004
aF0.020000000000000004
aF0.020000000000000004
aF0.020000000000000004
aF0.020000000000000004
aI0
asg6
g38
sg8
VLAC
p1086
sg10
I13891
sg11
g1082
sbsVWilson, Bobo
p1087
(i__main__
Player
p1088
(dp1089
g4
(lp1090
I0
aI0
aF0.08000000000000002
aF0.08000000000000002
aF0.08000000000000002
aI0
aF0.08000000000000002
aF0.08000000000000002
aF0.06999999999999999
aF0.33
aF0.08000000000000002
aF0.08000000000000002
aF0.08000000000000002
aF0.33
aF0.09000000000000001
aF0.06999999999999999
aF0.08000000000000002
aI0
asg6
g7
sg8
VTBB
p1091
sg10
I13544
sg11
g1087
sbsVPaulsen, Logan
p1092
(i__main__
Player
p1093
(dp1094
g4
(lp1095
I0
aF0.09000000000000001
aF0.11000000000000001
aF0.1
aF0.11000000000000001
aF0.1
aF0.09000000000000001
aF0.11000000000000001
aI0
aF0.1
aF0.11000000000000001
aF0.12
aF0.1
aF0.1
aF0.11000000000000001
aF0.1
aF0.11000000000000001
aI0
asg6
g16
sg8
VATL
p1096
sg10
I10123
sg11
g1092
sbsVWhite, Kevin
p1097
(i__main__
Player
p1098
(dp1099
g4
(lp1100
I0
aF0.8
aF2.471
aF2.3209999999999997
aF2.4810000000000003
aI0
aF2.361
aF2.461
aF2.421
aF2.3409999999999997
aF2.471
aF2.3280000000000003
aF2.471
aF2.5109999999999997
aF2.431
aF2.451
aF2.461
aI0
asg6
g7
sg8
VCHI
p1101
sg10
I12177
sg11
g1097
sbsVJones, Marvin
p1102
(i__main__
Player
p1103
(dp1104
g4
(lp1105
I0
aF9.850000000000001
aF10.33
aF10.129999999999999
aF10.240000000000002
aF10.9
aI0
aF9.48
aF10.16
aF9.520000000000001
aF9.98
aF12.030000000000001
aF9.98
aF9.920000000000002
aF9.170000000000002
aF9.370000000000001
aF9.520000000000001
aI0
asg6
g7
sg8
VDET
p1106
sg10
I10738
sg11
g1102
sbsVBrees, Drew
p1107
(i__main__
Player
p1108
(dp1109
g4
(lp1110
I0
aF17.788
aF19.24
aF18.975999999999996
aF19.816
aF15.494
aI0
aF13.500000000000002
aF13.232
aF15.822000000000001
aF18.68
aF14.286
aF18.975999999999996
aF17.644
aF16.046
aF19.694
aF16.915999999999997
aI0
asg6
g27
sg8
VNOR
p1111
sg10
I4925
sg11
g1107
sbsVColey, Stacy
p1112
(i__main__
Player
p1113
(dp1114
g4
(lp1115
I0
aI0
aI0
aI0
aI0
aF0.11900000000000001
aI0
aI0
aI0
aI0
aI0
aI0
aI0
aI0
aI0
aI0
aI0
aI0
asg6
g7
sg8
VMIN
p1116
sg10
I13177
sg11
g1112
sbsVTaylor, Taywan
p1117
(i__main__
Player
p1118
(dp1119
g4
(lp1120
I0
aF2.1900000000000004
aF2.63
aF2.48
aF2.56
aF2.26
aF2.3800000000000003
aF2.2
aI0
aF2.5800000000000005
aF2.5400000000000005
aF2.6
aF2.63
aF2.42
aF2.48
aF2.72
aF2.4900000000000007
aI0
asg6
g7
sg8
VTEN
p1121
sg10
I13167
sg11
g1117
sbsVBrown, Jaron
p1122
(i__main__
Player
p1123
(dp1124
g4
(lp1125
I0
aF3.7000000000000006
aF3.8500000000000005
aF3.9000000000000004
aF3.49
aF3.7900000000000005
aF3.6100000000000003
aI0
aF3.6400000000000006
aF3.5300000000000002
aF3.7900000000000005
aF3.880000000000001
aF5.0
aF4.54
aF3.68
aF4.54
aF3.7100000000000004
aI0
asg6
g7
sg8
VSEA
p1126
sg10
I11456
sg11
g1122
sbsVLynch, Marshawn
p1127
(i__main__
Player
p1128
(dp1129
g4
(lp1130
I0
aF10.720000000000002
aF10.350000000000001
aF12.06
aF10.930000000000001
aF10.700000000000001
aF10.71
aI0
aF10.64
aF9.770000000000001
aF10.700000000000001
aF10.080000000000002
aF10.840000000000002
aF10.420000000000002
aF10.9
aF12.31
aF10.350000000000001
aI0
asg6
g38
sg8
VOAK
p1131
sg10
I8670
sg11
g1127
sbsVMahomes, Patrick
p1132
(i__main__
Player
p1133
(dp1134
g4
(lp1135
I0
aF14.100000000000001
aF16.558
aF18.04
aF15.908000000000001
aF15.612000000000002
aF15.419999999999998
aF17.3
aF15.908000000000001
aF18.094
aF14.926
aF15.626000000000001
aI0
aF15.466000000000001
aF14.232000000000001
aF14.100000000000001
aF15.422
aI0
asg6
g27
sg8
VKCC
p1136
sg10
I13116
sg11
g1132
sbsVColts, Indianapolis
p1137
(i__main__
Player
p1138
(dp1139
g4
(lp1140
I0
aF3.8
aF3.3
aF2.7
aF6.8
aF2.7
aF3.9000000000000004
aF3.8
aF3.8
aI0
aF2.7
aF4.0
aF3.9000000000000004
aF2.7
aF6.8
aF4.2
aF3.5999999999999996
aI0
asg6
g89
sg8
VIND
p1141
sg10
I502
sg11
g1137
sbsVWentz, Carson
p1142
(i__main__
Player
p1143
(dp1144
g4
(lp1145
I0
aF18.240000000000002
aF16.124000000000002
aF17.104000000000003
aF17.752000000000002
aF14.012
aF18.900000000000002
aF18.836
aF16.012
aI0
aF16.988000000000003
aF16.938000000000002
aF18.900000000000002
aF15.802000000000001
aF16.988000000000003
aF15.987999999999998
aF18.462000000000003
aI0
asg6
g27
sg8
VPHI
p1146
sg10
I12610
sg11
g1142
sbsVCarson, Tra
p1147
(i__main__
Player
p1148
(dp1149
g4
(lp1150
I0
aI0
aI0
aI0
aI0
aI0
aI0
aI0
aI0
aI0
aI0
aI0
aF0.03
aI0
aI0
aI0
aF0.03
aI0
asg6
g38
sg8
VCIN
p1151
sg10
I13057
sg11
g1147
sbsVJeffery, Alshon
p1152
(i__main__
Player
p1153
(dp1154
g4
(lp1155
I0
aF7.335
aF7.615
aF7.325
aF7.515000000000001
aF7.054
aF7.558
aF8.776
aF7.205
aI0
aF7.385
aF7.385
aF7.558
aF7.254
aF7.385
aF7.215
aF7.655
aI0
asg6
g7
sg8
VPHI
p1156
sg10
I10722
sg11
g1152
sbsVBaldwin, Doug
p1157
(i__main__
Player
p1158
(dp1159
g4
(lp1160
I0
aF7.837000000000001
aF8.726
aF8.866
aF7.591000000000001
aF8.577
aF7.6770000000000005
aI0
aF7.810000000000001
aF7.508000000000001
aF8.577
aF8.834
aF10.384
aF8.941
aF7.817
aF8.941
aF7.867000000000001
aI0
asg6
g7
sg8
VSEA
p1161
sg10
I10527
sg11
g1157
sbsVHardy, Justin
p1162
(i__main__
Player
p1163
(dp1164
g4
(lp1165
I0
aF2.6000000000000005
aF2.6400000000000006
aF1.82
aF1.6600000000000001
aF2.4300000000000006
aF2.46
aF2.45
aI0
aF1.76
aF1.7400000000000002
aF2.4000000000000004
aF1.82
aF1.7100000000000002
aF1.7900000000000003
aF1.6400000000000001
aF2.6400000000000006
aI0
asg6
g7
sg8
VATL
p1166
sg10
I12185
sg11
g1162
sbsVHarris, Demetrius
p1167
(i__main__
Player
p1168
(dp1169
g4
(lp1170
I0
aI0
aF1.37
aF1.6400000000000001
aF1.6500000000000001
aF1.37
aF1.35
aF1.6300000000000001
aF1.6500000000000001
aF1.61
aF1.53
aF1.6
aI0
aF1.6700000000000002
aF1.4200000000000002
aF1.51
aF1.39
aI0
asg6
g16
sg8
VKCC
p1171
sg10
I11448
sg11
g1167
sbsVButler, Brice
p1172
(i__main__
Player
p1173
(dp1174
g4
(lp1175
I0
aF4.66
aF3.4800000000000004
aF4.08
aF4.13
aF4.14
aF3.3300000000000005
aF3.3400000000000003
aF4.14
aI0
aF3.3300000000000005
aF3.2700000000000005
aF3.1800000000000006
aF4.16
aF3.3800000000000003
aF4.11
aF3.4800000000000004
aI0
asg6
g7
sg8
VARZ
p1176
sg10
I11406
sg11
g1172
sbsVEnunwa, Quincy
p1177
(i__main__
Player
p1178
(dp1179
g4
(lp1180
I0
aF4.95
aF4.010000000000001
aF4.260000000000001
aF4.25
aF4.08
aF4.3100000000000005
aF4.1000000000000005
aF4.32
aF4.010000000000001
aF3.98
aI0
aF4.45
aF4.53
aF3.98
aF4.65
aF4.42
aI0
asg6
g7
sg8
VNYJ
p1181
sg10
I11850
sg11
g1177
sbsVJones, Matt
p1182
(i__main__
Player
p1183
(dp1184
g4
(lp1185
I0
aI0
aF0.010000000000000002
aF0.010000000000000002
aF0.010000000000000002
aF0.010000000000000002
aF0.010000000000000002
aF0.010000000000000002
aF0.010000000000000002
aI0
aF0.010000000000000002
aF0.010000000000000002
aF0.010000000000000002
aF0.010000000000000002
aF0.010000000000000002
aF0.010000000000000002
aF0.010000000000000002
aI0
asg6
g38
sg8
VPHI
p1186
sg10
I12162
sg11
g1182
sbsVShaheen, Adam
p1187
(i__main__
Player
p1188
(dp1189
g4
(lp1190
I0
aF1.3000000000000003
aF1.1800000000000002
aF1.2200000000000002
aF1.1500000000000001
aI0
aF1.33
aF1.1300000000000001
aF1.2400000000000002
aF1.2400000000000002
aF1.31
aF1.12
aF1.31
aF1.27
aF1.2600000000000002
aF1.3000000000000003
aF1.2600000000000002
aI0
asg6
g16
sg8
VCHI
p1191
sg10
I13254
sg11
g1187
sbsVAllison, Geronimo
p1192
(i__main__
Player
p1193
(dp1194
g4
(lp1195
I0
aF4.4
aF4.23
aF4.42
aF4.1
aF4.86
aF4.620000000000001
aI0
aF4.38
aF4.510000000000001
aF4.16
aF4.69
aF4.23
aF4.01
aF4.490000000000001
aF4.4
aF4.340000000000001
aI0
asg6
g7
sg8
VGBP
p1196
sg10
I12665
sg11
g1192
sbsVEllington, Bruce
p1197
(i__main__
Player
p1198
(dp1199
g4
(lp1200
I0
aF2.3600000000000003
aF2.41
aF2.39
aF2.1900000000000004
aF2.27
aF2.04
aF2.12
aF2.07
aF2.1100000000000003
aI0
aF2.2
aF2.41
aF2.17
aF2.1900000000000004
aF2.16
aF2.2600000000000002
aI0
asg6
g7
sg8
VHOU
p1201
sg10
I11689
sg11
g1197
sbsVBrown, Daniel
p1202
(i__main__
Player
p1203
(dp1204
g4
(lp1205
I0
aF0.24
aF0.2
aF0.22000000000000003
aF0.19
aI0
aF0.25
aF0.19
aF0.22000000000000003
aF0.22000000000000003
aF0.27999999999999997
aF0.18000000000000002
aF0.27999999999999997
aF0.22999999999999998
aF0.22999999999999998
aF0.24
aF0.24
aI0
asg6
g16
sg8
VCHI
p1206
sg10
I12585
sg11
g1202
sbsVLutz, Wil
p1207
(i__main__
Player
p1208
(dp1209
g4
(lp1210
I0
aF9.69
aF9.69
aF7.89
aF9.29
aF10.29
aI0
aF9.190000000000001
aF9.190000000000001
aF8.29
aF9.59
aF7.89
aF7.89
aF7.66
aF9.69
aF9.29
aF8.29
aI0
asg6
g145
sg8
VNOR
p1211
sg10
I12956
sg11
g1207
sbsVHooper, Austin
p1212
(i__main__
Player
p1213
(dp1214
g4
(lp1215
I0
aF3.37
aF3.5100000000000002
aF3.43
aF3.7500000000000004
aF3.43
aF3.3600000000000003
aF3.7800000000000002
aI0
aF3.6300000000000003
aF3.7
aF3.7
aF3.43
aF3.47
aF3.7800000000000002
aF3.5700000000000003
aF3.5100000000000002
aI0
asg6
g16
sg8
VATL
p1216
sg10
I12677
sg11
g1212
sbsVLeggett, Jordan
p1217
(i__main__
Player
p1218
(dp1219
g4
(lp1220
I0
aF0.38
aF0.34
aF0.27999999999999997
aF0.25
aF0.29
aF0.31000000000000005
aF0.24
aF0.26
aF0.34
aF0.31000000000000005
aI0
aF0.24
aF0.29
aF0.31000000000000005
aF0.30000000000000004
aF0.30000000000000004
aI0
asg6
g16
sg8
VNYJ
p1221
sg10
I13195
sg11
g1217
sbsVSeahawks, Seattle
p1222
(i__main__
Player
p1223
(dp1224
g4
(lp1225
I0
aF8.0
aF7.900000000000001
aF9.200000000000001
aF8.4
aF5.7
aF7.500000000000001
aI0
aF7.4
aF4.48
aF5.7
aF8.0
aF4.48
aF5.8
aF5.8
aF5.8
aF5.7
aI0
asg6
g89
sg8
VSEA
p1226
sg10
I515
sg11
g1222
sbsVMcBride, Tre
p1227
(i__main__
Player
p1228
(dp1229
g4
(lp1230
I0
aI0
aF0.26
aF0.27999999999999997
aF0.27999999999999997
aF0.27
aF0.29
aF0.27999999999999997
aF0.27999999999999997
aF0.26
aF0.25
aI0
aF0.29
aF0.30000000000000004
aF0.25
aF0.30000000000000004
aF0.29
aI0
asg6
g7
sg8
VNYJ
p1231
sg10
I12260
sg11
g1227
sbsVBortles, Blake
p1232
(i__main__
Player
p1233
(dp1234
g4
(lp1235
I0
aF18.21
aF14.72
aF17.114000000000004
aF17.564
aF14.921999999999999
aF16.418
aF18.072000000000003
aF13.828
aI0
aF16.518
aF16.294
aF13.428
aF16.518
aF17.114000000000004
aF14.542
aF18.200000000000003
aI0
asg6
g27
sg8
VJAC
p1236
sg10
I11642
sg11
g1232
sbsVSmith, Ito
p1237
(i__main__
Player
p1238
(dp1239
g4
(lp1240
I0
aF0.29000000000000004
aF0.30000000000000004
aF0.26
aF0.32
aF0.29000000000000004
aF0.32000000000000006
aF0.29000000000000004
aI0
aF0.30000000000000004
aF0.29000000000000004
aF0.28
aF0.26
aF0.29000000000000004
aF0.26
aF0.26
aF0.30000000000000004
aI0
asg6
g38
sg8
VATL
p1241
sg10
I13768
sg11
g1237
sbsVMixon, Joe
p1242
(i__main__
Player
p1243
(dp1244
g4
(lp1245
I0
aF8.400000000000002
aF11.450000000000001
aF10.72
aF10.52
aF12.550000000000002
aF11.390000000000002
aF10.870000000000001
aF11.230000000000002
aI0
aF11.280000000000001
aF11.450000000000001
aF12.270000000000001
aF10.77
aF11.260000000000002
aF10.75
aF12.270000000000001
aI0
asg6
g38
sg8
VCIN
p1246
sg10
I13131
sg11
g1242
sbsVJackson, Lamar
p1247
(i__main__
Player
p1248
(dp1249
g4
(lp1250
I0
aF-0.078
aF2.8510000000000004
aF2.821
aF2.8360000000000003
aF3.0280000000000005
aF2.833
aF2.822
aF3.0439999999999996
aF2.8360000000000003
aI0
aF2.8510000000000004
aF2.816
aF3.039
aF2.816
aF2.8169999999999997
aF2.7940000000000005
aI0
asg6
g27
sg8
VBAL
p1251
sg10
I13593
sg11
g1247
sbsVNjoku, David
p1252
(i__main__
Player
p1253
(dp1254
g4
(lp1255
I0
aF3.8440000000000003
aF4.425000000000001
aF5.306
aF5.476
aF4.455
aF4.645
aF4.305
aF4.425000000000001
aF4.515000000000001
aF4.6850000000000005
aI0
aF4.835
aF5.395
aF4.484999999999999
aF5.345
aF4.835
aI0
asg6
g16
sg8
VCLE
p1256
sg10
I13192
sg11
g1252
sbsVEkeler, Austin
p1257
(i__main__
Player
p1258
(dp1259
g4
(lp1260
I0
aF3.6300000000000003
aF6.06
aF4.75
aF4.360000000000001
aF4.52
aF4.85
aF4.640000000000001
aI0
aF4.75
aF4.52
aF4.630000000000001
aF4.48
aF4.82
aF5.15
aF4.7
aF4.83
aI0
asg6
g38
sg8
VLAC
p1261
sg10
I13404
sg11
g1257
sbsVEbron, Eric
p1262
(i__main__
Player
p1263
(dp1264
g4
(lp1265
I0
aF3.1
aF4.5200000000000005
aF4.260000000000001
aF4.61
aF4.09
aF4.5200000000000005
aF4.49
aF4.710000000000001
aI0
aF4.2
aF4.5200000000000005
aF4.88
aF4.2
aF4.61
aF4.5600000000000005
aF4.69
aI0
asg6
g16
sg8
VIND
p1266
sg10
I11695
sg11
g1262
sbsVZenner, Zach
p1267
(i__main__
Player
p1268
(dp1269
g4
(lp1270
I0
aF3.1300000000000003
aF2.81
aF2.9299999999999997
aF3.09
aF3.1500000000000004
aI0
aF3.27
aF3.16
aF2.7800000000000002
aF2.83
aF2.91
aF2.83
aF3.06
aF2.8800000000000003
aF3.5000000000000004
aF2.7800000000000002
aI0
asg6
g38
sg8
VDET
p1271
sg10
I12264
sg11
g1267
sbsVDavis, Reggie
p1272
(i__main__
Player
p1273
(dp1274
g4
(lp1275
I0
aF0.010000000000000002
aF0.020000000000000004
aF0.04000000000000001
aF0.010000000000000002
aF0.020000000000000004
aF0.010000000000000002
aF0.020000000000000004
aI0
aF0.010000000000000002
aF0.010000000000000002
aF0.010000000000000002
aF0.04000000000000001
aF0.010000000000000002
aF0.010000000000000002
aF0.010000000000000002
aF0.020000000000000004
aI0
asg6
g7
sg8
VATL
p1276
sg10
I13436
sg11
g1272
sbsVPatriots, New England
p1277
(i__main__
Player
p1278
(dp1279
g4
(lp1280
I0
aF8.2
aF4.279999999999999
aF5.4
aF5.5
aF5.8
aF4.3
aF5.6
aF5.4
aF5.6
aF5.7
aI0
aF5.6
aF4.4
aF5.5
aF3.9800000000000004
aF5.4
aI0
asg6
g89
sg8
VNEP
p1281
sg10
I504
sg11
g1277
sbsVPrater, Matt
p1282
(i__main__
Player
p1283
(dp1284
g4
(lp1285
I0
aF8.61
aF8.21
aF8.51
aF7.58
aF9.54
aI0
aF9.51
aF9.51
aF8.51
aF9.51
aF8.61
aF9.51
aF7.78
aF8.21
aF9.64
aF8.51
aI0
asg6
g145
sg8
VDET
p1286
sg10
I8930
sg11
g1282
sbsVCarrier, Derek
p1287
(i__main__
Player
p1288
(dp1289
g4
(lp1290
I0
aF0.27
aF0.26
aF0.29
aF0.27
aF0.25
aF0.24
aI0
aF0.29
aF0.30000000000000004
aF0.25
aF0.26
aF0.24
aF0.24
aF0.24
aF0.27
aF0.26
aI0
asg6
g16
sg8
VOAK
p1291
sg10
I10940
sg11
g1287
sbsVRoberts, Andre
p1292
(i__main__
Player
p1293
(dp1294
g4
(lp1295
I0
aI0
aF0.03
aF0.04000000000000001
aF0.04000000000000001
aF0.03
aF0.04000000000000001
aF0.03
aF0.04000000000000001
aF0.03
aF0.03
aI0
aF0.04000000000000001
aF0.04000000000000001
aF0.03
aF0.04000000000000001
aF0.04000000000000001
aI0
asg6
g7
sg8
VNYJ
p1296
sg10
I9921
sg11
g1292
sbsVMcDonald, Vance
p1297
(i__main__
Player
p1298
(dp1299
g4
(lp1300
I0
aF4.07
aF4.7
aF4.53
aF4.74
aF4.91
aF5.010000000000001
aI0
aF4.9
aF4.74
aF4.710000000000001
aF4.640000000000001
aF4.970000000000001
aF4.8100000000000005
aF5.11
aF4.390000000000001
aF4.65
aI0
asg6
g16
sg8
VPIT
p1301
sg10
I11257
sg11
g1297
sbsVSwitzer, Ryan
p1302
(i__main__
Player
p1303
(dp1304
g4
(lp1305
I0
aI0
aF0.11000000000000001
aF0.11000000000000001
aF0.12
aF0.096
aF0.12
aI0
aF0.12
aF0.134
aF0.096
aF0.10300000000000001
aF0.11000000000000001
aF0.11000000000000001
aF0.13
aF0.11000000000000001
aF0.11000000000000001
aI0
asg6
g7
sg8
VPIT
p1306
sg10
I13165
sg11
g1302
sbsVKessler, Cody
p1307
(i__main__
Player
p1308
(dp1309
g4
(lp1310
I0
aF-0.020000000000000004
aF-0.041999999999999996
aF-0.028999999999999998
aF-0.021999999999999992
aF-0.04000000000000001
aF-0.031
aF-0.028999999999999998
aF-0.045
aI0
aF-0.031
aF-0.008999999999999994
aF-0.047000000000000014
aF-0.031
aF-0.028999999999999998
aF-0.041999999999999996
aF-0.020000000000000004
aI0
asg6
g27
sg8
VJAC
p1311
sg10
I12617
sg11
g1307
sbsVRichard, Jalen
p1312
(i__main__
Player
p1313
(dp1314
g4
(lp1315
I0
aF3.3100000000000005
aF3.2
aF3.8
aF3.3900000000000006
aF3.3000000000000003
aF3.3100000000000005
aI0
aF3.3100000000000005
aF2.97
aF3.3000000000000003
aF3.0800000000000005
aF3.39
aF3.2200000000000006
aF3.38
aF3.8999999999999995
aF3.2
aI0
asg6
g38
sg8
VOAK
p1316
sg10
I12912
sg11
g1312
sbsVMatthews, Rishard
p1317
(i__main__
Player
p1318
(dp1319
g4
(lp1320
I0
aF5.594
aF5.308
aF4.259
aF5.1080000000000005
aF4.07
aF4.849
aF3.9699999999999998
aI0
aF5.138
aF4.4990000000000006
aF4.469
aF5.308
aF4.319
aF4.259
aF5.258000000000001
aF4.389
aI0
asg6
g7
sg8
VTEN
p1321
sg10
I10903
sg11
g1317
sbsVBell, Blake
p1322
(i__main__
Player
p1323
(dp1324
g4
(lp1325
I0
aF0.010000000000000002
aF0.009
aF0.009
aF0.009
aF0.008
aF0.008
aF0.009
aF0.008
aF0.03
aI0
aF0.008
aF0.009
aF0.007000000000000001
aF0.008
aF0.010000000000000002
aF0.03
aI0
asg6
g16
sg8
VMIN
p1326
sg10
I12213
sg11
g1322
sbsVDixon, Kenneth
p1327
(i__main__
Player
p1328
(dp1329
g4
(lp1330
I0
aF5.460000000000001
aF4.23
aF3.5100000000000002
aF3.7000000000000006
aF3.7500000000000004
aF3.5
aF3.66
aF3.48
aF3.7000000000000006
aI0
aF4.23
aF3.46
aF3.38
aF3.55
aF3.65
aF3.66
aI0
asg6
g38
sg8
VBAL
p1331
sg10
I12632
sg11
g1327
sbsVMcKenzie, Isaiah
p1332
(i__main__
Player
p1333
(dp1334
g4
(lp1335
I0
aI0
aF-0.154
aF-0.154
aF-0.134
aF-0.154
aF-0.134
aF-0.154
aF-0.134
aF-0.133
aI0
aF-0.192
aF-0.133
aF-0.154
aF-0.133
aF-0.134
aF-0.154
aI0
asg6
g7
sg8
VDEN
p1336
sg10
I13313
sg11
g1332
sbsVWeeden, Brandon
p1337
(i__main__
Player
p1338
(dp1339
g4
(lp1340
I0
aF0.08
aF0.052000000000000005
aF0.09200000000000001
aF0.084
aF0.084
aF0.07200000000000001
aF0.028000000000000025
aF0.09200000000000001
aF0.084
aI0
aF0.08
aF0.052000000000000005
aF0.08800000000000001
aF0.084
aF0.08800000000000001
aF0.076
aI0
asg6
g27
sg8
VHOU
p1341
sg10
I10698
sg11
g1337
sbsVButt, Jake
p1342
(i__main__
Player
p1343
(dp1344
g4
(lp1345
I0
aF3.47
aF4.050000000000001
aF3.5300000000000002
aF3.6100000000000003
aF3.7
aF3.8000000000000003
aF3.6400000000000006
aF3.6100000000000003
aF3.85
aI0
aF3.7800000000000002
aF3.4800000000000004
aF3.85
aF3.8800000000000003
aF3.8100000000000005
aF4.050000000000001
aI0
asg6
g16
sg8
VDEN
p1346
sg10
I13190
sg11
g1342
sbsVHenne, Chad
p1347
(i__main__
Player
p1348
(dp1349
g4
(lp1350
I0
aF-0.005000000000000001
aF-0.004
aF-0.004
aF-0.064
aF-0.004
aF-0.005000000000000001
aF-0.004
aF-0.064
aF-0.004
aF-0.005000000000000001
aF-0.004
aI0
aF-0.004
aF-0.006
aF-0.005000000000000001
aF-0.005000000000000001
aI0
asg6
g27
sg8
VKCC
p1351
sg10
I9073
sg11
g1347
sbsVDriskel, Jeff
p1352
(i__main__
Player
p1353
(dp1354
g4
(lp1355
I0
aF0.024
aF0.02
aF0.027999999999999997
aF0.027999999999999997
aF0.027999999999999997
aF0.024
aF0.024
aF0.024
aI0
aF0.024
aF0.02
aF0.024
aF0.024
aF0.02
aF0.024
aF0.024
aI0
asg6
g27
sg8
VCIN
p1356
sg10
I12623
sg11
g1352
sbsVGlennon, Mike
p1357
(i__main__
Player
p1358
(dp1359
g4
(lp1360
I0
aF0.02
aF0.016
aF0.016
aF0.016
aF0.016
aF0.012
aF0.016
aF0.016
aI0
aF0.016
aF0.016
aF0.012
aF0.027999999999999997
aF0.016
aF0.024
aF0.016
aI0
asg6
g27
sg8
VARZ
p1361
sg10
I11152
sg11
g1357
sbsVTravis, Ross
p1362
(i__main__
Player
p1363
(dp1364
g4
(lp1365
I0
aF0.21000000000000002
aF0.2
aF0.18000000000000002
aF0.21000000000000002
aF0.17
aF0.2
aF0.2
aF0.22000000000000003
aI0
aF0.18000000000000002
aF0.21000000000000002
aF0.22999999999999998
aF0.18000000000000002
aF0.21000000000000002
aF0.21000000000000002
aF0.22999999999999998
aI0
asg6
g16
sg8
VIND
p1366
sg10
I12898
sg11
g1362
sbsVWalford, Clive
p1367
(i__main__
Player
p1368
(dp1369
g4
(lp1370
I0
aF2.27
aF2.51
aF2.25
aF1.86
aF2.08
aF2.21
aF1.7300000000000002
aF1.9500000000000002
aF2.51
aF2.0900000000000003
aI0
aF1.8399999999999999
aF2.11
aF2.0900000000000003
aF2.22
aF2.24
aI0
asg6
g16
sg8
VNYJ
p1371
sg10
I12210
sg11
g1367
sbsVDorsett, Phillip
p1372
(i__main__
Player
p1373
(dp1374
g4
(lp1375
I0
aF5.720000000000001
aF5.32
aF5.08
aF5.0
aF3.0300000000000002
aF2.8600000000000003
aF3.0100000000000002
aF2.65
aF3.0700000000000003
aF3.1600000000000006
aI0
aF2.87
aF2.8400000000000003
aF2.69
aF3.1100000000000003
aF2.65
aI0
asg6
g7
sg8
VNEP
p1376
sg10
I12188
sg11
g1372
sbsVGibson, Shelton
p1377
(i__main__
Player
p1378
(dp1379
g4
(lp1380
I0
aF0.05
aF0.06
aF0.05
aF0.06
aF0.05
aF0.06
aF0.06
aF0.05
aI0
aF0.09000000000000001
aF0.05
aF0.06
aF0.05
aF0.09000000000000001
aF0.05
aF0.06
aI0
asg6
g7
sg8
VPHI
p1381
sg10
I13170
sg11
g1377
sbsVThomas, De'Anthony
p1382
(i__main__
Player
p1383
(dp1384
g4
(lp1385
I0
aF1.06
aF1.16
aF0.96
aF0.88
aF0.9199999999999999
aF0.94
aF0.88
aF0.88
aF0.9199999999999999
aF0.81
aF0.9299999999999999
aI0
aF0.81
aF0.9099999999999999
aF0.81
aF0.95
aI0
asg6
g7
sg8
VKCC
p1386
sg10
I11659
sg11
g1382
sbsVFales, David
p1387
(i__main__
Player
p1388
(dp1389
g4
(lp1390
I0
aF0.36000000000000004
aF0.9220000000000002
aF0.30800000000000005
aF0.2960000000000001
aF0.36400000000000005
aF0.2960000000000001
aF0.5720000000000001
aF0.5780000000000001
aF0.9220000000000002
aF0.5820000000000001
aI0
aF0.34400000000000003
aF0.2800000000000001
aF0.2960000000000001
aF0.20400000000000001
aF0.3120000000000001
aI0
asg6
g27
sg8
VMIA
p1391
sg10
I11835
sg11
g1387
sbsVCousins, Kirk
p1392
(i__main__
Player
p1393
(dp1394
g4
(lp1395
I0
aF18.47
aF18.878
aF14.262
aF16.466
aF14.612
aF15.472
aF18.718000000000004
aF17.288000000000004
aF18.604000000000003
aI0
aF15.45
aF18.878
aF15.542
aF15.594
aF19.392000000000003
aF18.604000000000003
aI0
asg6
g27
sg8
VMIN
p1396
sg10
I10700
sg11
g1392
sbsVCassel, Matt
p1397
(i__main__
Player
p1398
(dp1399
g4
(lp1400
I0
aF-0.064
aF-0.064
aF-0.14
aF-0.11199999999999999
aF-0.06
aI0
aF-0.072
aF-0.14
aF-0.148
aF-0.14
aF-0.06
aF-0.14
aF-0.136
aF-0.14
aF-0.14400000000000002
aF-0.148
aI0
asg6
g27
sg8
VDET
p1401
sg10
I8042
sg11
g1397
sbsVAdams, Jerell
p1402
(i__main__
Player
p1403
(dp1404
g4
(lp1405
I0
aF0.75
aF0.8300000000000001
aF0.8700000000000001
aF0.76
aF0.78
aF0.75
aF0.8300000000000001
aF0.8200000000000001
aI0
aF0.8600000000000001
aF0.73
aF0.75
aF0.78
aF0.8200000000000001
aF0.8500000000000001
aF0.8700000000000001
aI0
asg6
g16
sg8
VNYG
p1406
sg10
I12681
sg11
g1402
sbsVGordon, Josh
p1407
(i__main__
Player
p1408
(dp1409
g4
(lp1410
I0
aF4.550000000000001
aF8.05
aF7.890000000000001
aF7.640000000000001
aF7.7
aF7.53
aF8.250000000000002
aF8.180000000000001
aF7.7700000000000005
aF8.000000000000002
aI0
aF7.58
aF8.250000000000002
aF8.72
aF7.75
aF7.58
aI0
asg6
g7
sg8
VCLE
p1411
sg10
I10960
sg11
g1407
sbsVYeldon, T.J.
p1412
(i__main__
Player
p1413
(dp1414
g4
(lp1415
I0
aF5.78
aF5.390000000000001
aF5.450000000000001
aF5.820000000000001
aF5.49
aF5.460000000000001
aF5.98
aF5.210000000000001
aI0
aF5.590000000000001
aF5.760000000000001
aF6.550000000000001
aF5.590000000000001
aF5.450000000000001
aF5.95
aF6.080000000000001
aI0
asg6
g38
sg8
VJAC
p1416
sg10
I12153
sg11
g1412
sbsVBrown, Mack
p1417
(i__main__
Player
p1418
(dp1419
g4
(lp1420
I0
aF0.11000000000000001
aF0.11000000000000001
aF0.13999999999999999
aF0.11000000000000001
aF0.1
aF0.1
aF0.12
aF0.11000000000000001
aF0.13
aI0
aF0.27
aF0.11000000000000001
aF0.11000000000000001
aF0.11000000000000001
aF0.12
aF0.13
aI0
asg6
g38
sg8
VMIN
p1421
sg10
I12908
sg11
g1417
sbsVJones, Aaron
p1422
(i__main__
Player
p1423
(dp1424
g4
(lp1425
I0
aI0
aI0
aF5.44
aF5.8
aF5.53
aF5.0
aI0
aF5.29
aF5.17
aF5.529999999999999
aF5.25
aF5.029999999999999
aF5.1
aF5.0600000000000005
aF5.11
aF5.390000000000001
aI0
asg6
g38
sg8
VGBP
p1426
sg10
I13319
sg11
g1422
sbsVHeuerman, Jeff
p1427
(i__main__
Player
p1428
(dp1429
g4
(lp1430
I0
aF1.5
aF1.9000000000000001
aF1.58
aF1.6
aF1.6500000000000001
aF1.6900000000000002
aF1.6300000000000001
aF1.6
aF1.7900000000000003
aI0
aF1.66
aF1.5
aF1.77
aF1.7800000000000002
aF1.6900000000000002
aF1.9000000000000001
aI0
asg6
g16
sg8
VDEN
p1431
sg10
I12208
sg11
g1427
sbsVSchaub, Matt
p1432
(i__main__
Player
p1433
(dp1434
g4
(lp1435
I0
aF-0.023000000000000003
aF-0.018
aF-0.020000000000000004
aF-0.019000000000000003
aF-0.020000000000000004
aF-0.026000000000000002
aF-0.018
aI0
aF-0.022000000000000002
aF-0.018
aF-0.020000000000000004
aF-0.020000000000000004
aF-0.024
aF-0.018
aF-0.022000000000000002
aF-0.018
aI0
asg6
g27
sg8
VATL
p1436
sg10
I7480
sg11
g1432
sbsVWalker, Delanie
p1437
(i__main__
Player
p1438
(dp1439
g4
(lp1440
I0
aF6.71
aF5.69
aF5.050000000000001
aF4.99
aF5.430000000000001
aF5.150000000000001
aF5.320000000000001
aI0
aF5.500000000000001
aF4.710000000000001
aF5.670000000000001
aF5.69
aF5.44
aF5.050000000000001
aF5.7
aF5.430000000000001
aI0
asg6
g16
sg8
VTEN
p1441
sg10
I8416
sg11
g1437
sbsVWhite, James
p1442
(i__main__
Player
p1443
(dp1444
g4
(lp1445
I0
aF9.08
aF7.3999999999999995
aF7.93
aF7.85
aF7.45
aF7.39
aF7.2
aF8.91
aF7.409999999999999
aF7.37
aI0
aF7.659999999999999
aF7.1499999999999995
aF7.85
aF7.55
aF8.91
aI0
asg6
g38
sg8
VNEP
p1446
sg10
I11747
sg11
g1442
sbsVFunchess, Devin
p1447
(i__main__
Player
p1448
(dp1449
g4
(lp1450
I0
aF8.8
aF6.930000000000001
aF6.46
aI0
aF7.7700000000000005
aF6.840000000000001
aF7.010000000000001
aF6.650000000000001
aF7.8100000000000005
aF7.12
aF6.56
aF7.010000000000001
aF7.8100000000000005
aF6.760000000000001
aF6.960000000000001
aF6.930000000000001
aI0
asg6
g7
sg8
VCAR
p1451
sg10
I12205
sg11
g1447
sbsVSteelers, Pittsburgh
p1452
(i__main__
Player
p1453
(dp1454
g4
(lp1455
I0
aF8.8
aF6.1
aF7.299999999999999
aF5.240000000000001
aF6.1
aF7.4
aI0
aF9.5
aF5.240000000000001
aF5.240000000000001
aF6.1
aF7.799999999999999
aF5.340000000000001
aF7.4
aF5.5
aF5.5
aI0
asg6
g89
sg8
VPIT
p1456
sg10
I510
sg11
g1452
sbsVAiken, Kamar
p1457
(i__main__
Player
p1458
(dp1459
g4
(lp1460
I0
aI0
aF0.41
aF0.39
aF0.41
aF0.36000000000000004
aF0.41
aF0.45999999999999996
aF0.38
aI0
aF0.39
aF0.39
aF0.41
aF0.38
aF0.39
aF0.38
aF0.41
aI0
asg6
g7
sg8
VPHI
p1461
sg10
I10651
sg11
g1457
sbsVManning, Eli
p1462
(i__main__
Player
p1463
(dp1464
g4
(lp1465
I0
aF12.026
aF13.216
aF15.074000000000002
aF12.696000000000002
aF15.038
aF10.733999999999998
aF14.790000000000001
aF11.227999999999998
aI0
aF14.95
aF12.407999999999998
aF10.733999999999998
aF11.261999999999999
aF11.227999999999998
aF13.649999999999999
aF13.307999999999998
aI0
asg6
g27
sg8
VNYG
p1466
sg10
I7391
sg11
g1462
sbsVGreen, A.J.
p1467
(i__main__
Player
p1468
(dp1469
g4
(lp1470
I0
aF9.46
aF9.600000000000001
aF12.719999999999999
aF10.670000000000002
aF9.500000000000002
aF10.97
aF9.610000000000001
aF11.18
aI0
aF10.76
aF9.600000000000001
aF10.46
aF9.59
aF9.110000000000001
aF9.350000000000001
aF10.46
aI0
asg6
g7
sg8
VCIN
p1471
sg10
I10261
sg11
g1467
sbsVFuller, Will
p1472
(i__main__
Player
p1473
(dp1474
g4
(lp1475
I0
aF5.590000000000001
aF5.73
aF5.73
aF5.540000000000001
aF5.630000000000001
aF5.28
aF5.46
aF5.330000000000001
aF5.380000000000001
aI0
aF5.5200000000000005
aF5.73
aF5.490000000000001
aF5.540000000000001
aF5.470000000000001
aF5.61
aI0
asg6
g7
sg8
VHOU
p1476
sg10
I12647
sg11
g1472
sbsVGriffin, Ryan
p1477
(i__main__
Player
p1478
(dp1479
g4
(lp1480
I0
aF3.5500000000000003
aF4.03
aF4.07
aF3.9800000000000004
aF3.9200000000000004
aF3.87
aF3.6100000000000003
aF4.300000000000001
aF3.9600000000000004
aI0
aF3.8800000000000003
aF4.03
aF3.9899999999999998
aF3.9800000000000004
aF3.8800000000000003
aF3.5800000000000005
aI0
asg6
g16
sg8
VHOU
p1481
sg10
I11399
sg11
VGriffin, Ryan
p1482
sbsVCooper, Pharoh
p1483
(i__main__
Player
p1484
(dp1485
g4
(lp1486
I0
aF0.52
aF0.51
aF0.5
aF0.53
aF0.58
aF0.53
aF0.6100000000000001
aF0.58
aF0.67
aF0.58
aF0.54
aI0
aF0.53
aF0.56
aF0.5900000000000001
aF0.51
aI0
asg6
g7
sg8
VLAR
p1487
sg10
I12660
sg11
g1483
sbsVMichael, Christine
p1488
(i__main__
Player
p1489
(dp1490
g4
(lp1491
I0
aF5.12
aF4.8
aF4.21
aF4.8
aF4.37
aF4.670000000000001
aF5.2700000000000005
aF4.44
aI0
aF4.590000000000001
aF4.41
aF4.89
aF4.590000000000001
aF4.8
aF4.430000000000001
aF4.670000000000001
aI0
asg6
g38
sg8
VIND
p1492
sg10
I11179
sg11
g1488
sbsVDavis, Geremy
p1493
(i__main__
Player
p1494
(dp1495
g4
(lp1496
I0
aF-0.009
aF-0.009
aF-0.009
aF-0.010000000000000002
aF-0.008
aF-0.009
aF-0.010000000000000002
aI0
aF-0.010000000000000002
aF-0.008
aF-0.009
aF-0.008
aF-0.010000000000000002
aF-0.009
aF-0.009
aF-0.009
aI0
asg6
g7
sg8
VLAC
p1497
sg10
I12338
sg11
g1493
sbsVFowler, Bennie
p1498
(i__main__
Player
p1499
(dp1500
g4
(lp1501
I0
aI0
aF2.0100000000000002
aF1.72
aF2.1
aI0
aF1.8
aF1.9700000000000002
aF1.85
aF1.81
aF1.81
aF1.81
aF1.81
aF2.0900000000000003
aF1.9500000000000002
aF2.0100000000000002
aF2.04
aI0
asg6
g7
sg8
VCHI
p1502
sg10
I11931
sg11
g1498
sbsVEngram, Evan
p1503
(i__main__
Player
p1504
(dp1505
g4
(lp1506
I0
aF4.450000000000001
aF7.690000000000001
aF7.880000000000001
aF6.75
aF7.450000000000001
aF6.74
aF7.710000000000001
aF7.65
aI0
aF7.850000000000001
aF6.64
aF6.74
aF7.440000000000001
aF7.65
aF7.800000000000001
aF7.860000000000001
aI0
asg6
g16
sg8
VNYG
p1507
sg10
I13189
sg11
g1503
sbsVRichardson, Paul
p1508
(i__main__
Player
p1509
(dp1510
g4
(lp1511
I0
aF4.531000000000001
aF5.1000000000000005
aF5.150000000000001
aI0
aF5.21
aF5.820000000000001
aF5.1000000000000005
aF5.21
aF5.1000000000000005
aF5.330000000000001
aF5.45
aF5.1000000000000005
aF5.010000000000001
aF5.21
aF5.010000000000001
aF5.230000000000001
aI0
asg6
g7
sg8
VWAS
p1512
sg10
I11681
sg11
g1508
sbsVDerby, A.J.
p1513
(i__main__
Player
p1514
(dp1515
g4
(lp1516
I0
aF0.96
aF0.6900000000000001
aF0.76
aF0.6100000000000001
aF0.7400000000000001
aF0.68
aF0.7600000000000001
aF0.7500000000000001
aF0.6900000000000001
aF0.7500000000000001
aI0
aF0.7400000000000001
aF0.7000000000000001
aF0.6100000000000001
aF0.6
aF0.65
aI0
asg6
g16
sg8
VMIA
p1517
sg10
I12351
sg11
g1513
sbsVByrd, Damiere
p1518
(i__main__
Player
p1519
(dp1520
g4
(lp1521
I0
aF1.1800000000000002
aF1.21
aF1.05
aI0
aF1.26
aF1.19
aF1.2200000000000002
aF1.15
aF1.35
aF1.25
aF1.1300000000000001
aF1.2200000000000002
aF1.35
aF1.1700000000000002
aF1.2
aF1.21
aI0
asg6
g7
sg8
VCAR
p1522
sg10
I12464
sg11
g1518
sbsVRivers, Philip
p1523
(i__main__
Player
p1524
(dp1525
g4
(lp1526
I0
aF15.946
aF14.19
aF16.412000000000003
aF20.046000000000003
aF16.36
aF20.14
aF18.862000000000002
aI0
aF15.744000000000002
aF16.36
aF16.696
aF15.622000000000002
aF17.676000000000002
aF18.998
aF15.946
aF14.214
aI0
asg6
g27
sg8
VLAC
p1527
sg10
I7394
sg11
g1523
sbsVSanders, Jason
p1528
(i__main__
Player
p1529
(dp1530
g4
(lp1531
I0
aF6.050000000000001
aF5.5
aF6.050000000000001
aF5.5
aF5.5
aF5.950000000000001
aF5.85
aF6.449999999999999
aF5.5
aF5.950000000000001
aI0
aF5.4
aF6.4
aF5.5
aF5.4
aF5.4
aI0
asg6
g145
sg8
VMIA
p1532
sg10
I13832
sg11
g1528
sbsVO'Leary, Nick
p1533
(i__main__
Player
p1534
(dp1535
g4
(lp1536
I0
aF1.79
aF2.0
aF1.71
aF2.22
aF2.11
aF2.2100000000000004
aF2.1300000000000003
aF1.62
aF1.9300000000000002
aF2.05
aI0
aF1.7999999999999998
aF2.4000000000000004
aF2.05
aF2.25
aF1.62
aI0
asg6
g16
sg8
VBUF
p1537
sg10
I12207
sg11
g1533
sbsVMcCoy, LeSean
p1538
(i__main__
Player
p1539
(dp1540
g4
(lp1541
I0
aF11.55
aF10.96
aF10.13
aF10.740000000000002
aF10.58
aF11.52
aF10.88
aF10.540000000000001
aF10.24
aF11.23
aI0
aF10.73
aF11.760000000000002
aF11.23
aF11.9
aF10.540000000000001
aI0
asg6
g38
sg8
VBUF
p1542
sg10
I9448
sg11
g1538
sbsVRoberts, Michael
p1543
(i__main__
Player
p1544
(dp1545
g4
(lp1546
I0
aF0.79
aF0.63
aF0.5
aF0.61
aF0.6400000000000001
aI0
aF0.68
aF0.55
aF0.53
aF0.54
aF0.5599999999999999
aF0.54
aF0.6000000000000001
aF0.58
aF0.6000000000000001
aF0.53
aI0
asg6
g16
sg8
VDET
p1547
sg10
I13197
sg11
g1543
sbsVLewis, Marcedes
p1548
(i__main__
Player
p1549
(dp1550
g4
(lp1551
I0
aF1.6
aF1.46
aF1.77
aF1.7600000000000002
aF1.87
aF1.85
aI0
aF1.7800000000000002
aF1.48
aF2.0100000000000002
aF1.5900000000000003
aF1.46
aF1.7200000000000002
aF1.79
aF1.6
aF1.75
aI0
asg6
g16
sg8
VGBP
p1552
sg10
I8269
sg11
g1548
sbsVDavis, Corey
p1553
(i__main__
Player
p1554
(dp1555
g4
(lp1556
I0
aF6.569999999999999
aF8.590000000000002
aF8.080000000000002
aF8.320000000000002
aF7.830000000000001
aF8.040000000000001
aF7.710000000000001
aI0
aF8.350000000000001
aF8.270000000000001
aF8.340000000000002
aF8.590000000000002
aF8.100000000000001
aF8.080000000000002
aF8.510000000000002
aF8.190000000000001
aI0
asg6
g7
sg8
VTEN
p1557
sg10
I13153
sg11
g1553
sbsVRoss, John
p1558
(i__main__
Player
p1559
(dp1560
g4
(lp1561
I0
aF5.075000000000001
aF4.295000000000001
aF5.896000000000001
aF5.095000000000001
aF4.765000000000001
aF5.275
aF4.855
aF5.385
aI0
aF5.155
aF4.295000000000001
aF4.915
aF4.832000000000001
aF3.9640000000000004
aF4.715000000000001
aF4.915
aI0
asg6
g7
sg8
VCIN
p1562
sg10
I13155
sg11
g1558
sbsVSeals-Jones, Ricky
p1563
(i__main__
Player
p1564
(dp1565
g4
(lp1566
I0
aF4.53
aF4.87
aF4.61
aF4.59
aF4.89
aF4.35
aF4.86
aF4.89
aI0
aF4.64
aF4.99
aF4.71
aF4.97
aF5.0
aF4.82
aF4.87
aI0
asg6
g16
sg8
VARZ
p1567
sg10
I13382
sg11
g1563
sbsVWebb, Davis
p1568
(i__main__
Player
p1569
(dp1570
g4
(lp1571
I0
aF-0.015
aF-0.014000000000000002
aF-0.013000000000000001
aF-0.015
aF-0.013000000000000001
aF-0.017
aF-0.013000000000000001
aF-0.016
aI0
aF-0.013000000000000001
aF-0.015
aF-0.017
aF-0.016
aF-0.016
aF-0.014000000000000002
aF-0.014000000000000002
aI0
asg6
g27
sg8
VNYG
p1572
sg10
I13120
sg11
g1568
sbsVRawls, Thomas
p1573
(i__main__
Player
p1574
(dp1575
g4
(lp1576
I0
aI0
aF0.8700000000000001
aF0.81
aF0.7500000000000001
aF0.7500000000000001
aF0.7700000000000001
aF0.68
aF0.7200000000000001
aF0.8700000000000001
aF0.98
aI0
aF0.7400000000000001
aF0.7500000000000001
aF0.98
aF0.8400000000000001
aF0.7700000000000001
aI0
asg6
g38
sg8
VNYJ
p1577
sg10
I12169
sg11
g1573
sbsVMeredith, Cameron
p1578
(i__main__
Player
p1579
(dp1580
g4
(lp1581
I0
aF0.99
aF5.180000000000001
aF5.24
aF5.3100000000000005
aF5.200000000000001
aI0
aF5.160000000000001
aF5.210000000000001
aF5.19
aF5.130000000000001
aF5.28
aF5.24
aF5.29
aF5.3100000000000005
aF5.6
aF5.3100000000000005
aI0
asg6
g7
sg8
VNOR
p1582
sg10
I12465
sg11
g1578
sbsVAguayo, Roberto
p1583
(i__main__
Player
p1584
(dp1585
g4
(lp1586
I0
aF3.4400000000000004
aF3.6100000000000003
aF2.68
aF2.7800000000000002
aF3.6100000000000003
aF3.48
aF3.6100000000000003
aI0
aF3.6100000000000003
aF3.6100000000000003
aF2.7800000000000002
aF2.7800000000000002
aF2.7800000000000002
aF3.0800000000000005
aF3.4400000000000004
aF3.0800000000000005
aI0
asg6
g145
sg8
VLAC
p1587
sg10
I12721
sg11
g1583
sbsVErtz, Zach
p1588
(i__main__
Player
p1589
(dp1590
g4
(lp1591
I0
aF9.01
aF5.949999999999999
aF7.430000000000001
aF7.340000000000001
aF5.79
aF7.440000000000001
aF6.850000000000001
aF6.06
aI0
aF7.220000000000001
aF6.140000000000001
aF7.440000000000001
aF7.210000000000002
aF7.220000000000001
aF7.300000000000002
aF7.460000000000002
aI0
asg6
g16
sg8
VPHI
p1592
sg10
I11247
sg11
g1588
sbsVDiggs, Stefon
p1593
(i__main__
Player
p1594
(dp1595
g4
(lp1596
I0
aF8.790000000000001
aF8.68
aF7.960000000000001
aF8.42
aF8.65
aF7.19
aF8.36
aF8.740000000000002
aF8.17
aI0
aF8.46
aF8.68
aF8.610000000000001
aF8.690000000000001
aF8.06
aF8.17
aI0
asg6
g7
sg8
VMIN
p1597
sg10
I12186
sg11
g1593
sbsVWheaton, Markus
p1598
(i__main__
Player
p1599
(dp1600
g4
(lp1601
I0
aF0.1
aF0.11000000000000001
aF0.1
aF0.11000000000000001
aF0.11000000000000001
aF0.11000000000000001
aF0.13999999999999999
aF0.1
aI0
aF0.12
aF0.11000000000000001
aF0.11000000000000001
aF0.1
aF0.12
aF0.1
aF0.11000000000000001
aI0
asg6
g7
sg8
VPHI
p1602
sg10
I11229
sg11
g1598
sbsVWilliams, Maxx
p1603
(i__main__
Player
p1604
(dp1605
g4
(lp1606
I0
aF1.4889999999999999
aF0.46
aF0.4699999999999999
aF0.37999999999999995
aF0.48999999999999994
aF0.52
aF0.39000000000000007
aF0.41
aF0.37999999999999995
aI0
aF0.46
aF0.51
aF0.45
aF0.41
aF0.37000000000000005
aF0.43
aI0
asg6
g16
sg8
VBAL
p1607
sg10
I12206
sg11
g1603
sbsVJones, Landry
p1608
(i__main__
Player
p1609
(dp1610
g4
(lp1611
I0
aF0.428
aF0.109
aF0.109
aF0.09899999999999999
aF0.11900000000000001
aF0.11900000000000001
aI0
aF0.428
aF0.09899999999999999
aF0.123
aF0.109
aF0.109
aF0.05899999999999999
aF0.109
aF0.104
aF0.114
aI0
asg6
g27
sg8
VPIT
p1612
sg10
I11156
sg11
g1608
sbsVFicken, Sam
p1613
(i__main__
Player
p1614
(dp1615
g4
(lp1616
I0
aF0.5
aF0.5
aF0.4
aF0.5
aF0.5
aF0.4
aF0.77
aF0.5
aF0.5
aF0.5
aF0.5
aI0
aF0.5
aF0.5
aF0.4
aF0.5
aI0
asg6
g145
sg8
VLAR
p1617
sg10
I13564
sg11
g1613
sbsVBellamy, Josh
p1618
(i__main__
Player
p1619
(dp1620
g4
(lp1621
I0
aF3.23
aF3.3200000000000003
aF2.8200000000000003
aF3.49
aI0
aF2.99
aF3.23
aF3.13
aF2.9400000000000004
aF3.0300000000000002
aF3.0
aF3.0300000000000002
aF3.44
aF3.1500000000000004
aF3.3700000000000006
aF3.3600000000000003
aI0
asg6
g7
sg8
VCHI
p1622
sg10
I11104
sg11
g1618
sbsVHarris, Maurice
p1623
(i__main__
Player
p1624
(dp1625
g4
(lp1626
I0
aF0.22000000000000003
aF0.26
aF0.27
aI0
aF0.26
aF0.3
aF0.26
aF0.31
aF0.26
aF0.28
aF0.28
aF0.26
aF0.25
aF0.31
aF0.26
aF0.27
aI0
asg6
g7
sg8
VWAS
p1627
sg10
I12917
sg11
g1623
sbsVJanikowski, Sebastian
p1628
(i__main__
Player
p1629
(dp1630
g4
(lp1631
I0
aF4.199999999999999
aF4.699999999999999
aF3.7
aF4.3
aF4.1
aF5.2
aI0
aF4.699999999999999
aF4.1
aF4.1
aF5.0
aF4.3
aF4.5
aF4.3
aF4.5
aF4.199999999999999
aI0
asg6
g145
sg8
VSEA
p1632
sg10
I5666
sg11
g1628
sbsVGore, Frank
p1633
(i__main__
Player
p1634
(dp1635
g4
(lp1636
I0
aF5.390000000000001
aF5.7700000000000005
aF5.4
aF5.28
aF6.430000000000001
aF5.19
aF6.240000000000001
aF6.12
aF5.7700000000000005
aF5.49
aI0
aF5.540000000000001
aF6.579999999999999
aF5.28
aF5.11
aF5.48
aI0
asg6
g38
sg8
VMIA
p1637
sg10
I7877
sg11
g1633
sbsVTexans, Houston
p1638
(i__main__
Player
p1639
(dp1640
g4
(lp1641
I0
aF1.8
aF4.8
aF4.7
aF4.9
aF5.0
aF4.7
aF4.0
aF4.8
aF4.8
aI0
aF4.4
aF4.8
aF7.1000000000000005
aF4.9
aF4.8
aF3.9
aI0
asg6
g89
sg8
VHOU
p1642
sg10
I532
sg11
g1638
sbsVSmallwood, Wendell
p1643
(i__main__
Player
p1644
(dp1645
g4
(lp1646
I0
aF1.49
aF1.62
aF1.61
aF1.58
aF1.4800000000000002
aF1.7800000000000002
aF1.55
aF1.6
aI0
aF1.66
aF1.6400000000000001
aF1.7800000000000002
aF1.73
aF1.66
aF1.61
aF1.74
aI0
asg6
g38
sg8
VPHI
p1647
sg10
I12636
sg11
g1643
sbsVBrent, K.J.
p1648
(i__main__
Player
p1649
(dp1650
g4
(lp1651
I0
aF0.09000000000000001
aF0.1
aF0.1
aF0.1
aF0.1
aF0.09000000000000001
aF0.09000000000000001
aF0.09000000000000001
aI0
aF0.11000000000000001
aF0.09000000000000001
aF0.09000000000000001
aF0.11000000000000001
aF0.1
aF0.1
aF0.1
aI0
asg6
g7
sg8
VIND
p1652
sg10
I13573
sg11
g1648
sbsVForeman, D'Onta
p1653
(i__main__
Player
p1654
(dp1655
g4
(lp1656
I0
aI0
aI0
aI0
aI0
aI0
aI0
aF4.010000000000001
aF4.6000000000000005
aF3.9600000000000004
aI0
aF4.44
aF3.98
aF4.3
aF4.03
aF4.330000000000001
aF3.74
aI0
asg6
g38
sg8
VHOU
p1657
sg10
I13134
sg11
g1653
sbsVAlie-Cox, Mo
p1658
(i__main__
Player
p1659
(dp1660
g4
(lp1661
I0
aI0
aF0.27999999999999997
aF0.25
aF0.29
aF0.22999999999999998
aF0.30000000000000004
aF0.27
aF0.39
aI0
aF0.29
aF0.27
aF0.31000000000000005
aF0.29
aF0.29
aF0.27999999999999997
aF0.29
aI0
asg6
g16
sg8
VIND
p1662
sg10
I13246
sg11
g1658
sbsVBears, Chicago
p1663
(i__main__
Player
p1664
(dp1665
g4
(lp1666
I0
aF7.6
aF7.2
aF8.7
aF6.8999999999999995
aI0
aF7.2
aF4.7
aF7.2
aF6.8999999999999995
aF6.8999999999999995
aF5.8
aF6.8999999999999995
aF6.8
aF4.9
aF7.2
aF5.8
aI0
asg6
g89
sg8
VCHI
p1667
sg10
I521
sg11
g1663
sbsVCunningham, Benny
p1668
(i__main__
Player
p1669
(dp1670
g4
(lp1671
I0
aF2.0900000000000003
aF2.29
aF2.09
aF2.1900000000000004
aI0
aF2.48
aF2.13
aF2.39
aF2.68
aF2.5000000000000004
aF2.1500000000000004
aF2.5000000000000004
aF2.34
aF2.29
aF2.18
aF1.9299999999999997
aI0
asg6
g38
sg8
VCHI
p1672
sg10
I11432
sg11
g1668
sbsVRodgers, Aaron
p1673
(i__main__
Player
p1674
(dp1675
g4
(lp1676
I0
aF18.976000000000003
aF17.286
aF19.03
aF17.88
aF21.758000000000003
aF22.144000000000002
aI0
aF19.576
aF18.982
aF22.664
aF19.014000000000003
aF17.286
aF18.956000000000003
aF21.814
aF18.918
aF21.804000000000002
aI0
asg6
g27
sg8
VGBP
p1677
sg10
I7836
sg11
g1673
sbsVManhertz, Chris
p1678
(i__main__
Player
p1679
(dp1680
g4
(lp1681
I0
aF0.39
aF0.39
aF0.4
aI0
aF0.4
aF0.4
aF0.34
aF0.35000000000000003
aF0.32000000000000006
aF0.35000000000000003
aF0.5900000000000001
aF0.34
aF0.32000000000000006
aF0.39
aF0.36000000000000004
aF0.39
aI0
asg6
g16
sg8
VCAR
p1682
sg10
I12955
sg11
g1678
sbsVElliott, Ezekiel
p1683
(i__main__
Player
p1684
(dp1685
g4
(lp1686
I0
aF16.310000000000002
aF17.930000000000003
aF17.490000000000002
aF19.330000000000005
aF18.300000000000004
aF16.630000000000003
aF18.34
aI0
aF16.48
aF15.76
aF15.889999999999999
aF18.34
aF17.520000000000003
aF15.76
aF17.330000000000002
aF17.490000000000002
aI0
asg6
g38
sg8
VDAL
p1687
sg10
I12625
sg11
g1683
sbsVMariota, Marcus
p1688
(i__main__
Player
p1689
(dp1690
g4
(lp1691
I0
aF18.546
aF18.058000000000003
aF15.043999999999999
aF14.184000000000001
aF13.77
aF13.766000000000002
aF13.678
aI0
aF16.076
aF14.878000000000002
aF16.112000000000002
aF18.058000000000003
aF16.988
aF15.043999999999999
aF18.6
aF14.87
aI0
asg6
g27
sg8
VTEN
p1692
sg10
I12141
sg11
g1688
sbsVLewis, Tommylee
p1693
(i__main__
Player
p1694
(dp1695
g4
(lp1696
I0
aF1.4200000000000002
aF1.06
aF1.17
aF1.19
aF1.13
aI0
aF1.03
aF1.05
aF1.05
aF0.99
aF1.15
aF1.17
aF1.1600000000000001
aF1.19
aF1.47
aF1.1800000000000002
aI0
asg6
g7
sg8
VNOR
p1697
sg10
I12921
sg11
g1693
sbsVBrowns, Cleveland
p1698
(i__main__
Player
p1699
(dp1700
g4
(lp1701
I0
aF2.8
aF3.0
aF4.2
aF4.1
aF2.8
aF2.8
aF4.0
aF3.1
aF3.5
aF3.5
aI0
aF4.1
aF7.2
aF2.8
aF4.2
aF4.1
aI0
asg6
g89
sg8
VCLE
p1702
sg10
I507
sg11
g1698
sbsVHopkins, Dustin
p1703
(i__main__
Player
p1704
(dp1705
g4
(lp1706
I0
aF7.290000000000001
aF7.390000000000001
aF8.52
aI0
aF8.120000000000001
aF7.69
aF6.6899999999999995
aF7.99
aF7.190000000000001
aF8.420000000000002
aF8.72
aF6.6899999999999995
aF6.890000000000001
aF7.99
aF7.290000000000001
aF8.620000000000001
aI0
asg6
g145
sg8
VWAS
p1707
sg10
I11387
sg11
g1703
sbsVLogan, T.J.
p1708
(i__main__
Player
p1709
(dp1710
g4
(lp1711
I0
aF1.25
aF1.1400000000000001
aF1.04
aF1.0899999999999999
aF0.9300000000000002
aF1.01
aF1.09
aF0.9300000000000002
aI0
aF1.09
aF1.0699999999999998
aF1.1300000000000001
aF1.1099999999999999
aF1.29
aF1.02
aF1.1400000000000001
aI0
asg6
g38
sg8
VARZ
p1712
sg10
I13142
sg11
g1708
sbsVIvory, Chris
p1713
(i__main__
Player
p1714
(dp1715
g4
(lp1716
I0
aF4.19
aF5.85
aF5.49
aF5.74
aF5.710000000000001
aF6.18
aF5.77
aF5.6000000000000005
aF5.54
aF6.0600000000000005
aI0
aF5.74
aF6.27
aF6.0600000000000005
aF6.290000000000001
aF5.6000000000000005
aI0
asg6
g38
sg8
VBUF
p1717
sg10
I10077
sg11
g1713
sbsVSmith, Lee
p1718
(i__main__
Player
p1719
(dp1720
g4
(lp1721
I0
aF0.5700000000000001
aF0.6000000000000001
aF0.63
aF0.58
aF0.54
aF0.51
aI0
aF0.5900000000000001
aF0.5900000000000001
aF0.54
aF0.54
aF0.51
aF0.55
aF0.51
aF0.5900000000000001
aF0.6000000000000001
aI0
asg6
g16
sg8
VOAK
p1722
sg10
I10398
sg11
g1718
sbsVMoncrief, Donte
p1723
(i__main__
Player
p1724
(dp1725
g4
(lp1726
I0
aF3.6300000000000003
aF3.47
aF3.52
aF3.26
aF3.22
aF3.5300000000000002
aF3.6300000000000003
aF3.5100000000000002
aI0
aF3.5300000000000002
aF3.5500000000000003
aF3.1
aF3.5300000000000002
aF3.52
aF3.35
aF3.1500000000000004
aI0
asg6
g7
sg8
VJAC
p1727
sg10
I11677
sg11
g1723
sbsVColeman, Tevin
p1728
(i__main__
Player
p1729
(dp1730
g4
(lp1731
I0
aF8.440000000000001
aF9.030000000000001
aF9.899999999999999
aF11.32
aF10.07
aF9.850000000000001
aF10.129999999999999
aI0
aF10.950000000000001
aF10.100000000000001
aF9.11
aF9.899999999999999
aF10.07
aF9.17
aF8.82
aF9.030000000000001
aI0
asg6
g38
sg8
VATL
p1732
sg10
I12152
sg11
g1728
sbsVCowboys, Dallas
p1733
(i__main__
Player
p1734
(dp1735
g4
(lp1736
I0
aF7.180000000000001
aF7.05
aF7.58
aF7.28
aF7.8100000000000005
aF6.75
aF7.88
aI0
aF7.48
aF5.95
aF5.85
aF7.88
aF7.28
aF5.95
aF6.78
aF7.28
aI0
asg6
g145
sg8
VDAL
p1737
sg10
I716
sg11
VCowboys, Dallas
p1738
sbsVBolden, Brandon
p1739
(i__main__
Player
p1740
(dp1741
g4
(lp1742
I0
aI0
aI0
aI0
aI0
aI0
aI0
aF0.37000000000000005
aF0.5
aF0.38999999999999996
aF0.54
aI0
aF0.49
aF0.37000000000000005
aF0.4200000000000001
aF0.4000000000000001
aF0.5
aI0
asg6
g38
sg8
VNEP
p1743
sg10
I10932
sg11
g1739
sbsVLandry, Jarvis
p1744
(i__main__
Player
p1745
(dp1746
g4
(lp1747
I0
aF10.0
aF9.191
aF8.912
aF8.503000000000002
aF8.808000000000002
aF7.763000000000001
aF9.56
aF10.0
aF8.752000000000002
aF9.141
aI0
aF7.933000000000001
aF9.56
aF10.927
aF8.722000000000001
aF7.933000000000001
aI0
asg6
g7
sg8
VCLE
p1748
sg10
I11680
sg11
g1744
sbsVBooker, Devontae
p1749
(i__main__
Player
p1750
(dp1751
g4
(lp1752
I0
aF8.090000000000002
aF7.7700000000000005
aF8.26
aF7.930000000000001
aF8.350000000000001
aF8.1
aF7.540000000000001
aF7.930000000000001
aF8.520000000000001
aI0
aF8.06
aF8.24
aF9.000000000000002
aF7.2700000000000005
aF8.280000000000003
aF7.7700000000000005
aI0
asg6
g38
sg8
VDEN
p1753
sg10
I12629
sg11
g1749
sbsVNewton, Cam
p1754
(i__main__
Player
p1755
(dp1756
g4
(lp1757
I0
aF18.196
aF17.934
aF17.858
aI0
aF19.31
aF16.036
aF15.678
aF15.518
aF16.604
aF16.998
aF17.930000000000003
aF16.032
aF16.604
aF18.446
aF16.942
aF17.934
aI0
asg6
g27
sg8
VCAR
p1758
sg10
I10273
sg11
g1754
sbsVDawson, Phil
p1759
(i__main__
Player
p1760
(dp1761
g4
(lp1762
I0
aF8.77
aF6.91
aF8.64
aF8.94
aF7.34
aF7.61
aF7.01
aF7.34
aI0
aF7.61
aF8.739999999999998
aF6.91
aF8.64
aF8.04
aF6.91
aF6.91
aI0
asg6
g145
sg8
VARZ
p1763
sg10
I3494
sg11
g1759
sbsVGrimble, Xavier
p1764
(i__main__
Player
p1765
(dp1766
g4
(lp1767
I0
aF0.28
aF0.27
aF0.25
aF0.29
aF0.28
aF0.31
aI0
aF0.28
aF0.29
aF0.27
aF0.26
aF0.29
aF0.28
aF0.3
aF0.19
aF0.26
aI0
asg6
g16
sg8
VPIT
p1768
sg10
I11701
sg11
g1764
sbsVTannehill, Ryan
p1769
(i__main__
Player
p1770
(dp1771
g4
(lp1772
I0
aF15.124
aF13.258
aF11.024
aF10.917999999999997
aF12.716
aF10.423999999999998
aF12.844
aF13.512
aF13.258
aF13.526
aI0
aF12.228
aF9.41
aF10.917999999999997
aF9.162
aF11.08
aI0
asg6
g27
sg8
VMIA
p1773
sg10
I10697
sg11
g1769
sbsVBrown, John
p1774
(i__main__
Player
p1775
(dp1776
g4
(lp1777
I0
aF3.7300000000000004
aF3.6700000000000004
aF3.83
aF4.2
aF3.87
aF4.11
aF4.050000000000001
aF4.57
aF4.2
aI0
aF3.6700000000000004
aF3.7700000000000005
aF4.010000000000001
aF3.84
aF4.24
aF3.6400000000000006
aI0
asg6
g7
sg8
VBAL
p1778
sg10
I11783
sg11
g1774
sbsVShepard, Russell
p1779
(i__main__
Player
p1780
(dp1781
g4
(lp1782
I0
aF0.7300000000000001
aF0.6100000000000001
aF0.6500000000000001
aF0.6200000000000001
aF0.7200000000000001
aF0.6
aF0.59
aF0.5900000000000001
aI0
aF0.7200000000000001
aF0.6200000000000001
aF0.6
aF0.6
aF0.5900000000000001
aF0.6200000000000001
aF0.6
aI0
asg6
g7
sg8
VNYG
p1783
sg10
I11237
sg11
g1779
sbsVMannion, Sean
p1784
(i__main__
Player
p1785
(dp1786
g4
(lp1787
I0
aF-0.138
aF-0.341
aF-0.375
aF-0.376
aF-0.11400000000000005
aF-0.126
aF-0.08200000000000005
aF-0.07600000000000007
aF-0.119
aF-0.11400000000000005
aF-0.134
aI0
aF-0.08900000000000002
aF-0.14500000000000002
aF-0.15700000000000003
aF-0.341
aI0
asg6
g27
sg8
VLAR
p1788
sg10
I12145
sg11
g1784
sbsVMcCown, Josh
p1789
(i__main__
Player
p1790
(dp1791
g4
(lp1792
I0
aF4.13
aF4.231999999999999
aF4.1899999999999995
aF3.1940000000000004
aF3.1999999999999997
aF3.938
aF2.642
aF3.1059999999999994
aF4.231999999999999
aF2.9259999999999997
aI0
aF3.038
aF4.08
aF2.9259999999999997
aF4.22
aF4.218
aI0
asg6
g27
sg8
VNYJ
p1793
sg10
I6589
sg11
g1789
sbsVCatanzaro, Chandler
p1794
(i__main__
Player
p1795
(dp1796
g4
(lp1797
I0
aF6.62
aF5.790000000000001
aF6.39
aF7.02
aI0
aF6.39
aF6.62
aF6.62
aF6.5200000000000005
aF7.42
aF6.5200000000000005
aF6.49
aF6.5200000000000005
aF6.62
aF6.5200000000000005
aF5.34
aI0
asg6
g145
sg8
VTBB
p1798
sg10
I11960
sg11
g1794
sbsVCadet, Travaris
p1799
(i__main__
Player
p1800
(dp1801
g4
(lp1802
I0
aF2.48
aF2.3200000000000003
aF2.1
aF2.23
aF2.21
aF2.47
aF2.23
aF2.1900000000000004
aF2.13
aF2.29
aI0
aF2.21
aF2.5500000000000003
aF2.29
aF2.5700000000000003
aF2.1900000000000004
aI0
asg6
g38
sg8
VBUF
p1803
sg10
I10978
sg11
g1799
sbsVKendricks, Lance
p1804
(i__main__
Player
p1805
(dp1806
g4
(lp1807
I0
aF1.07
aF1.06
aF1.2100000000000002
aF1.2100000000000002
aF1.33
aF1.27
aI0
aF1.2400000000000002
aF1.02
aF1.4300000000000002
aF1.12
aF1.06
aF1.18
aF1.2000000000000002
aF1.12
aF1.2100000000000002
aI0
asg6
g16
sg8
VGBP
p1808
sg10
I10318
sg11
g1804
sbsVLewis, Roger
p1809
(i__main__
Player
p1810
(dp1811
g4
(lp1812
I0
aF2.4000000000000004
aF2.5600000000000005
aF2.6
aF2.4800000000000004
aF2.83
aF2.52
aF2.4600000000000004
aF2.3000000000000003
aI0
aF2.54
aF2.5500000000000003
aF2.52
aF2.44
aF2.3000000000000003
aF2.54
aF2.4600000000000004
aI0
asg6
g7
sg8
VNYG
p1813
sg10
I12649
sg11
g1809
sbsVHeinicke, Taylor
p1814
(i__main__
Player
p1815
(dp1816
g4
(lp1817
I0
aF0.0004
aF0.0004
aF0.0004
aI0
aF0.0004
aF0.0014
aF0.0014
aF0.0014
aF0.0004
aF0.0014
aF0.0004
aF-0.0792
aF0.0004
aF0.0004
aF0.0004
aF0.0004
aI0
asg6
g27
sg8
VCAR
p1818
sg10
I12476
sg11
g1814
sbsVWilliams, Mike
p1819
(i__main__
Player
p1820
(dp1821
g4
(lp1822
I0
aF0.71
aF5.33
aF5.35
aF5.390000000000001
aF5.29
aF5.33
aF5.390000000000001
aI0
aF5.38
aF5.29
aF5.4
aF5.28
aF5.390000000000001
aF5.3
aF5.31
aF5.33
aI0
asg6
g7
sg8
VLAC
p1823
sg10
I13154
sg11
g1819
sbsVHurst, Hayden
p1824
(i__main__
Player
p1825
(dp1826
g4
(lp1827
I0
aI0
aI0
aF4.98
aF4.54
aF5.2
aF5.0200000000000005
aF4.5600000000000005
aF4.640000000000001
aF4.54
aI0
aF5.140000000000001
aF5.0600000000000005
aF4.91
aF4.68
aF4.41
aF4.7700000000000005
aI0
asg6
g16
sg8
VBAL
p1828
sg10
I13680
sg11
g1824
sbsVChargers, Los Angeles
p1829
(i__main__
Player
p1830
(dp1831
g4
(lp1832
I0
aF5.8
aF8.399999999999999
aF5.9
aF6.4
aF8.3
aF11.799999999999999
aF8.3
aI0
aF8.3
aF8.3
aF8.8
aF11.2
aF5.7
aF8.3
aF5.9
aF5.5
aI0
asg6
g89
sg8
VLAC
p1833
sg10
I514
sg11
g1829
sbsVMcCarron, AJ
p1834
(i__main__
Player
p1835
(dp1836
g4
(lp1837
I0
aF0.028
aF-0.094
aF0.022
aF0.029
aF0.029
aF0.029
aF0.025
aF0.04000000000000001
aF0.026000000000000002
aF0.029
aI0
aF0.026000000000000002
aF0.029
aF0.029
aF0.029
aF0.04000000000000001
aI0
asg6
g27
sg8
VBUF
p1838
sg10
I11643
sg11
g1834
sbsVHarris, Dwayne
p1839
(i__main__
Player
p1840
(dp1841
g4
(lp1842
I0
aF1.13
aF1.21
aF1.11
aF1.13
aF1.06
aF1.1800000000000002
aI0
aF1.1600000000000001
aF1.19
aF1.06
aF1.03
aF1.1
aF1.1
aF1.21
aF1.06
aF1.21
aI0
asg6
g7
sg8
VOAK
p1843
sg10
I10410
sg11
g1839
sbsVLatimer, Cody
p1844
(i__main__
Player
p1845
(dp1846
g4
(lp1847
I0
aF2.588
aF2.6520000000000006
aF2.8340000000000005
aF2.686
aF3.18
aF2.9379999999999997
aF2.657
aF2.579
aI0
aF2.7550000000000003
aF2.865
aF2.9379999999999997
aF2.637
aF2.579
aF2.7550000000000003
aF2.757
aI0
asg6
g7
sg8
VNYG
p1848
sg10
I11758
sg11
g1844
sbsVWilds, Brandon
p1849
(i__main__
Player
p1850
(dp1851
g4
(lp1852
I0
aF0.4700000000000001
aF0.44000000000000006
aF0.4100000000000001
aF0.46
aF0.43000000000000005
aF0.43000000000000005
aF0.53
aF0.4000000000000001
aI0
aF0.45000000000000007
aF0.44000000000000006
aF0.53
aF0.45000000000000007
aF0.4100000000000001
aF0.48
aF0.48
aI0
asg6
g38
sg8
VJAC
p1853
sg10
I12867
sg11
g1849
sbsVCore, Cody
p1854
(i__main__
Player
p1855
(dp1856
g4
(lp1857
I0
aF0.5449999999999999
aF0.5650000000000001
aF0.674
aF0.5650000000000001
aF0.515
aF0.5950000000000001
aF0.535
aF0.604
aI0
aF0.575
aF0.5650000000000001
aF0.535
aF0.605
aF0.495
aF0.515
aF0.535
aI0
asg6
g7
sg8
VCIN
p1858
sg10
I12824
sg11
g1854
sbsVMarshall, Byron
p1859
(i__main__
Player
p1860
(dp1861
g4
(lp1862
I0
aI0
aF0.41000000000000003
aF0.4000000000000001
aI0
aF0.41000000000000003
aF0.39000000000000007
aF0.47000000000000003
aF0.4800000000000001
aF0.38000000000000006
aF0.41000000000000003
aF0.44000000000000006
aF0.47000000000000003
aF0.38000000000000006
aF0.4800000000000001
aF0.4000000000000001
aF0.4000000000000001
aI0
asg6
g38
sg8
VWAS
p1863
sg10
I12864
sg11
g1859
sbsVCoates, Sammie
p1864
(i__main__
Player
p1865
(dp1866
g4
(lp1867
I0
aF0.09000000000000001
aF0.06999999999999999
aF0.06999999999999999
aF0.06999999999999999
aF0.06999999999999999
aF0.06
aF0.06999999999999999
aF0.06
aF0.06
aI0
aF0.06999999999999999
aF0.06999999999999999
aF0.06999999999999999
aF0.06999999999999999
aF0.06999999999999999
aF0.06999999999999999
aI0
asg6
g7
sg8
VHOU
p1868
sg10
I12178
sg11
g1864
sbsVWilliams, Tyrell
p1869
(i__main__
Player
p1870
(dp1871
g4
(lp1872
I0
aF5.8
aF6.590000000000001
aF6.94
aF7.800000000000001
aF6.63
aF6.88
aF7.8500000000000005
aI0
aF7.13
aF6.63
aF6.720000000000001
aF6.510000000000001
aF7.8500000000000005
aF6.63
aF6.7700000000000005
aF6.8100000000000005
aI0
asg6
g7
sg8
VLAC
p1873
sg10
I12391
sg11
g1869
sbsVGano, Graham
p1874
(i__main__
Player
p1875
(dp1876
g4
(lp1877
I0
aF6.65
aF7.2
aF8.0
aI0
aF7.8999999999999995
aF9.1
aF6.8999999999999995
aF7.8999999999999995
aF8.0
aF7.499999999999999
aF8.0
aF8.399999999999999
aF8.0
aF8.0
aF8.0
aF7.2
aI0
asg6
g145
sg8
VCAR
p1878
sg10
I9694
sg11
g1874
sbsVChark, D.J.
p1879
(i__main__
Player
p1880
(dp1881
g4
(lp1882
I0
aF0.29000000000000004
aF0.2700000000000001
aF0.24000000000000005
aF0.25000000000000006
aF0.24
aF0.28
aF0.2900000000000001
aF0.2700000000000001
aI0
aF0.28
aF0.29000000000000004
aF0.22999999999999998
aF0.28
aF0.24000000000000005
aF0.26000000000000006
aF0.24
aI0
asg6
g7
sg8
VJAC
p1883
sg10
I13668
sg11
g1879
sbsVSanders, Emmanuel
p1884
(i__main__
Player
p1885
(dp1886
g4
(lp1887
I0
aF6.39
aF6.41
aF6.7
aF6.720000000000001
aF6.78
aF6.86
aF6.32
aF6.720000000000001
aF7.420000000000001
aI0
aF6.260000000000001
aF7.24
aF6.49
aF7.170000000000001
aF6.82
aF6.41
aI0
asg6
g7
sg8
VDEN
p1888
sg10
I9918
sg11
g1884
sbsVJohnson, Duke
p1889
(i__main__
Player
p1890
(dp1891
g4
(lp1892
I0
aF5.340000000000001
aF7.96
aF8.150000000000002
aF7.75
aF8.020000000000001
aF7.859999999999999
aF7.929999999999999
aF7.999999999999999
aF7.819999999999999
aF7.6000000000000005
aI0
aF8.510000000000002
aF8.21
aF7.73
aF7.78
aF8.510000000000002
aI0
asg6
g38
sg8
VCLE
p1893
sg10
I12157
sg11
g1889
sbsVRobinson, Demarcus
p1894
(i__main__
Player
p1895
(dp1896
g4
(lp1897
I0
aF1.19
aF1.58
aF1.37
aF1.2399999999999998
aF1.29
aF1.3200000000000003
aF1.21
aF1.2399999999999998
aF1.29
aF1.1800000000000002
aF1.3000000000000003
aI0
aF1.2399999999999998
aF1.2600000000000002
aF1.19
aF1.35
aI0
asg6
g7
sg8
VKCC
p1898
sg10
I12785
sg11
g1894
sbsVRudock, Jake
p1899
(i__main__
Player
p1900
(dp1901
g4
(lp1902
I0
aF-0.027999999999999997
aF-0.027999999999999997
aF-0.032
aF-0.032
aF-0.008
aI0
aF-0.008
aF-0.032
aF-0.036
aF-0.032
aF-0.008
aF-0.032
aF-0.032
aF-0.036
aF-0.036
aF-0.036
aI0
asg6
g27
sg8
VDET
p1903
sg10
I12819
sg11
g1899
sbsVGriffin, Garrett
p1904
(i__main__
Player
p1905
(dp1906
g4
(lp1907
I0
aI0
aF0.03
aF0.03
aF0.03
aF0.03
aI0
aF0.03
aF0.03
aF0.03
aF0.03
aF0.03
aF0.03
aF0.03
aF0.03
aF0.03
aF0.03
aI0
asg6
g16
sg8
VNOR
p1908
sg10
I13546
sg11
g1904
sbsVBrown, Malcolm
p1909
(i__main__
Player
p1910
(dp1911
g4
(lp1912
I0
aF2.19
aF2.1399999999999997
aF2.2800000000000002
aF2.08
aF2.3
aF2.2
aF1.99
aF2.24
aF2.26
aF2.3
aF2.22
aI0
aF2.5
aF2.13
aF2.08
aF2.1399999999999997
aI0
asg6
g38
sg8
VLAR
p1913
sg10
I12386
sg11
g1909
sbsVBeasley, Cole
p1914
(i__main__
Player
p1915
(dp1916
g4
(lp1917
I0
aF5.75
aF4.01
aF3.87
aF3.6400000000000006
aF4.050000000000001
aF3.7600000000000007
aF3.8
aI0
aF3.9600000000000004
aF3.88
aF3.83
aF3.8
aF3.87
aF3.88
aF3.83
aF4.030000000000001
aI0
asg6
g7
sg8
VDAL
p1918
sg10
I10973
sg11
g1914
sbsVConner, James
p1919
(i__main__
Player
p1920
(dp1921
g4
(lp1922
I0
aF1.23
aF3.7300000000000004
aF3.7000000000000006
aF3.72
aF3.63
aF3.83
aI0
aF3.77
aF3.72
aF3.65
aF3.6700000000000004
aF3.66
aF3.7000000000000006
aF3.66
aF3.65
aF3.7100000000000004
aI0
asg6
g38
sg8
VPIT
p1923
sg10
I13146
sg11
g1919
sbsVBolden, Victor
p1924
(i__main__
Player
p1925
(dp1926
g4
(lp1927
I0
aI0
aI0
aI0
aI0
aF0.09000000000000001
aF0.11000000000000001
aF0.11000000000000001
aF0.09000000000000001
aF0.1
aF0.11000000000000001
aI0
aF0.11000000000000001
aF0.12
aF0.1
aF0.12
aF0.11000000000000001
aI0
asg6
g7
sg8
VSFO
p1928
sg10
I13375
sg11
g1924
sbsVSanu, Mohamed
p1929
(i__main__
Player
p1930
(dp1931
g4
(lp1932
I0
aF6.460000000000001
aF7.340000000000001
aF6.48
aF5.9399999999999995
aF6.620000000000001
aF6.73
aF6.67
aI0
aF6.32
aF6.239999999999999
aF6.5
aF6.48
aF6.14
aF6.52
aF5.220000000000001
aF7.340000000000001
aI0
asg6
g7
sg8
VATL
p1933
sg10
I10723
sg11
g1929
sbsVCobb, Randall
p1934
(i__main__
Player
p1935
(dp1936
g4
(lp1937
I0
aF6.789999999999999
aF4.91
aF5.16
aF4.82
aF4.94
aF5.36
aI0
aF5.13
aF5.24
aF4.880000000000001
aF5.3100000000000005
aF4.91
aF4.720000000000001
aF5.3
aF5.2
aF5.09
aI0
asg6
g7
sg8
VGBP
p1938
sg10
I10308
sg11
g1934
sbsVHoward, O.J.
p1939
(i__main__
Player
p1940
(dp1941
g4
(lp1942
I0
aF6.24
aF5.22
aF5.2700000000000005
aF5.9799999999999995
aI0
aF6.239999999999999
aF6.329999999999999
aF6.3999999999999995
aF5.2700000000000005
aF6.22
aF6.53
aF6.420000000000001
aF5.2700000000000005
aF5.23
aF5.94
aF6.32
aI0
asg6
g16
sg8
VTBB
p1943
sg10
I13188
sg11
g1939
sbsVWebb, Joe
p1944
(i__main__
Player
p1945
(dp1946
g4
(lp1947
I0
aF0.03
aI0
aI0
aI0
aI0
aI0
aI0
aI0
aI0
aI0
aI0
aI0
aI0
aI0
aI0
aI0
aI0
asg6
g27
sg8
VHOU
p1948
sg10
I9992
sg11
g1944
sbsVJohnson, David
p1949
(i__main__
Player
p1950
(dp1951
g4
(lp1952
I0
aF15.58
aF17.180000000000003
aF15.92
aF17.290000000000003
aF15.569999999999999
aF15.83
aF16.900000000000002
aF15.569999999999999
aI0
aF17.010000000000005
aF16.840000000000003
aF17.300000000000004
aF17.080000000000005
aF19.61
aF15.94
aF17.180000000000003
aI0
asg6
g38
sg8
VARZ
p1953
sg10
I12171
sg11
g1949
sbsVGallman, Wayne
p1954
(i__main__
Player
p1955
(dp1956
g4
(lp1957
I0
aF3.56
aF3.4000000000000004
aF3.7199999999999998
aF3.4699999999999998
aF3.29
aF3.1
aF3.1699999999999995
aF3.71
aI0
aF2.9600000000000004
aF3.52
aF3.1
aF3.1699999999999995
aF3.71
aF3.35
aF3.4199999999999995
aI0
asg6
g38
sg8
VNYG
p1958
sg10
I13135
sg11
g1954
sbsVSmith, Rod
p1959
(i__main__
Player
p1960
(dp1961
g4
(lp1962
I0
aF5.27
aF5.6899999999999995
aF5.430000000000001
aF5.8
aF5.6499999999999995
aF5.35
aF5.6000000000000005
aI0
aF5.3100000000000005
aF4.45
aF5.12
aF5.6000000000000005
aF5.44
aF4.45
aF5.38
aF5.4
aI0
asg6
g38
sg8
VDAL
p1963
sg10
I12444
sg11
g1959
sbsVFitzpatrick, Ryan
p1964
(i__main__
Player
p1965
(dp1966
g4
(lp1967
I0
aF12.404
aF10.620000000000001
aF12.656000000000002
aF4.228000000000001
aI0
aF5.096
aF5.348000000000001
aF5.058000000000001
aF5.356000000000001
aF4.3580000000000005
aF5.7780000000000005
aF5.132
aF5.356000000000001
aF4.964
aF3.9819999999999998
aF4.954000000000001
aI0
asg6
g27
sg8
VTBB
p1968
sg10
I8062
sg11
g1964
sbsVGaroppolo, Jimmy
p1969
(i__main__
Player
p1970
(dp1971
g4
(lp1972
I0
aF10.046000000000001
aF17.914
aF16.074
aF13.850000000000001
aF15.46
aF18.288
aF16.256
aF15.46
aF16.066
aF18.762
aI0
aF16.304
aF14.894000000000002
aF16.37
aF14.894000000000002
aF14.802000000000003
aI0
asg6
g27
sg8
VSFO
p1973
sg10
I11760
sg11
g1969
sbsVPatterson, Cordarrelle
p1974
(i__main__
Player
p1975
(dp1976
g4
(lp1977
I0
aF2.35
aF2.1100000000000003
aF2.0300000000000002
aF1.9100000000000001
aF1.9000000000000001
aF1.8
aF1.8900000000000001
aF1.69
aF1.9300000000000002
aF1.9600000000000002
aI0
aF1.81
aF1.81
aF1.71
aF1.9500000000000002
aF1.69
aI0
asg6
g7
sg8
VNEP
p1978
sg10
I11225
sg11
g1974
sbsVCardinals, Arizona
p1979
(i__main__
Player
p1980
(dp1981
g4
(lp1982
I0
aF6.3
aF4.5
aF7.000000000000001
aF6.8
aF4.800000000000001
aF4.800000000000001
aF7.000000000000001
aF4.800000000000001
aI0
aF4.800000000000001
aF6.7
aF4.199999999999999
aF7.000000000000001
aF6.3999999999999995
aF4.800000000000001
aF4.5
aI0
asg6
g89
sg8
VARZ
p1983
sg10
I519
sg11
g1979
sbsVKelly, Chad
p1984
(i__main__
Player
p1985
(dp1986
g4
(lp1987
I0
aF0.08800000000000008
aF0.1760000000000001
aF0.050000000000000044
aF0.08600000000000008
aF0.354
aF0.09000000000000008
aF0.08000000000000007
aF0.08600000000000008
aF0.356
aI0
aF0.04200000000000004
aF0.31200000000000006
aF0.33799999999999997
aF0.362
aF0.352
aF0.1760000000000001
aI0
asg6
g27
sg8
VDEN
p1988
sg10
I13121
sg11
g1984
sbsVGronkowski, Rob
p1989
(i__main__
Player
p1990
(dp1991
g4
(lp1992
I0
aF11.09
aF9.36
aF11.3
aF12.17
aF11.08
aF10.32
aF10.27
aF10.8
aF11.17
aF10.95
aI0
aF10.55
aF9.0
aF12.17
aF9.559999999999999
aF10.8
aI0
asg6
g16
sg8
VNEP
p1993
sg10
I9902
sg11
g1989
sbsVAdams, Davante
p1994
(i__main__
Player
p1995
(dp1996
g4
(lp1997
I0
aF11.540000000000001
aF11.25
aF11.530000000000001
aF10.399999999999999
aF11.090000000000002
aF12.510000000000002
aI0
aF11.48
aF11.72
aF11.100000000000001
aF11.82
aF11.25
aF10.23
aF11.57
aF11.750000000000002
aF11.420000000000002
aI0
asg6
g7
sg8
VGBP
p1998
sg10
I11675
sg11
g1994
sbsVBell, Le'Veon
p1999
(i__main__
Player
p2000
(dp2001
g4
(lp2002
I0
aF19.01
aF17.8
aF18.06
aF19.07
aF17.080000000000002
aF20.59
aI0
aF19.01
aF19.07
aF17.48
aF17.81
aF17.61
aF18.12
aF17.530000000000005
aF17.430000000000003
aF18.16
aI0
asg6
g38
sg8
VPIT
p2003
sg10
I11192
sg11
g1999
sbsVSproles, Darren
p2004
(i__main__
Player
p2005
(dp2006
g4
(lp2007
I0
aF4.700000000000001
aF3.4400000000000004
aF3.4200000000000004
aF3.35
aF3.1900000000000004
aF3.56
aF3.29
aF3.4000000000000004
aI0
aF3.33
aF3.46
aF3.56
aF3.66
aF3.33
aF3.45
aF3.6399999999999997
aI0
asg6
g38
sg8
VPHI
p2008
sg10
I7942
sg11
g2004
sbsVMiller, Lamar
p2009
(i__main__
Player
p2010
(dp2011
g4
(lp2012
I0
aF9.76
aF9.909999999999998
aF10.38
aF10.08
aF9.840000000000002
aF11.7
aF9.950000000000001
aF10.859999999999998
aF9.81
aI0
aF10.660000000000002
aF9.909999999999998
aF10.339999999999998
aF10.08
aF10.429999999999998
aF8.81
aI0
asg6
g38
sg8
VHOU
p2013
sg10
I10708
sg11
g2009
sbsVYancey, DeAngelo
p2014
(i__main__
Player
p2015
(dp2016
g4
(lp2017
I0
aF0.35000000000000003
aF0.3400000000000001
aF0.3400000000000001
aF0.32000000000000006
aF0.32000000000000006
aF0.37000000000000005
aI0
aF0.35000000000000003
aF0.36000000000000004
aF0.33000000000000007
aF0.41000000000000003
aF0.3400000000000001
aF0.31
aF0.5
aF0.35000000000000003
aF0.3400000000000001
aI0
asg6
g7
sg8
VGBP
p2018
sg10
I13187
sg11
g2014
sbsVKelly, John
p2019
(i__main__
Player
p2020
(dp2021
g4
(lp2022
I0
aF0.12
aF0.13
aF0.12
aF0.11000000000000001
aF0.12
aF0.12
aF0.11000000000000001
aF0.12
aF0.13999999999999999
aF0.12
aF0.12
aI0
aF0.13
aF0.11000000000000001
aF0.11000000000000001
aF0.13
aI0
asg6
g38
sg8
VLAR
p2023
sg10
I13619
sg11
g2019
sbsVElliott, Jake
p2024
(i__main__
Player
p2025
(dp2026
g4
(lp2027
I0
aF7.7
aF9.0
aF8.3
aF9.5
aF8.3
aF8.399999999999999
aF8.6
aF8.3
aI0
aF6.9
aF9.0
aF8.399999999999999
aF9.9
aF6.9
aF7.7
aF9.9
aI0
asg6
g145
sg8
VPHI
p2028
sg10
I13303
sg11
g2024
sbsVRipkowski, Aaron
p2029
(i__main__
Player
p2030
(dp2031
g4
(lp2032
I0
aI0
aF1.83
aF1.9900000000000002
aF2.12
aF2.25
aF1.83
aI0
aF1.92
aF1.88
aF2.0100000000000002
aF1.9100000000000001
aF1.83
aF1.87
aF1.8700000000000003
aF1.85
aF1.9700000000000002
aI0
asg6
g38
sg8
VGBP
p2033
sg10
I12353
sg11
g2029
sbsVGostkowski, Stephen
p2034
(i__main__
Player
p2035
(dp2036
g4
(lp2037
I0
aF10.62
aF7.359999999999999
aF7.46
aF7.5600000000000005
aF7.359999999999999
aF7.359999999999999
aF7.5600000000000005
aF8.26
aF7.5600000000000005
aF8.26
aI0
aF7.46
aF7.359999999999999
aF7.5600000000000005
aF6.91
aF8.26
aI0
asg6
g145
sg8
VNEP
p2038
sg10
I8359
sg11
g2034
sbsVPeterman, Nathan
p2039
(i__main__
Player
p2040
(dp2041
g4
(lp2042
I0
aF0.764
aF0.5820000000000001
aF0.758
aF1.534
aF1.498
aF1.534
aF1.51
aF0.8340000000000001
aF0.8180000000000001
aF1.516
aI0
aF0.8140000000000001
aF1.506
aF1.516
aF1.512
aF0.8340000000000001
aI0
asg6
g27
sg8
VBUF
p2043
sg10
I13127
sg11
g2039
sbsVMoore, D.J.
p2044
(i__main__
Player
p2045
(dp2046
g4
(lp2047
I0
aF4.28
aF4.900000000000001
aF4.57
aI0
aF5.130000000000001
aF4.870000000000001
aF4.970000000000001
aF4.720000000000001
aF5.15
aF5.090000000000001
aF4.69
aF5.000000000000001
aF5.15
aF4.800000000000001
aF4.930000000000001
aF4.900000000000001
aI0
asg6
g7
sg8
VCAR
p2048
sg10
I13635
sg11
g2044
sbsVRidley, Stevan
p2049
(i__main__
Player
p2050
(dp2051
g4
(lp2052
I0
aF0.78
aF0.55
aF0.5700000000000001
aF0.56
aF0.53
aF0.6100000000000001
aI0
aF0.81
aF0.56
aF0.54
aF0.54
aF0.55
aF0.5700000000000001
aF0.54
aF0.53
aF0.5700000000000001
aI0
asg6
g38
sg8
VPIT
p2053
sg10
I10334
sg11
g2049
sbsVCollins, Alex
p2054
(i__main__
Player
p2055
(dp2056
g4
(lp2057
I0
aF11.96
aF11.350000000000001
aF9.47
aF9.870000000000001
aF10.0
aF9.49
aF9.780000000000001
aF9.4
aF9.870000000000001
aI0
aF11.350000000000001
aF9.41
aF9.16
aF9.55
aF9.73
aF9.75
aI0
asg6
g38
sg8
VBAL
p2058
sg10
I12628
sg11
g2054
sbsVWilson, Albert
p2059
(i__main__
Player
p2060
(dp2061
g4
(lp2062
I0
aF3.1399999999999997
aF2.81
aF2.62
aF2.9100000000000006
aF2.66
aF2.93
aF2.78
aF3.1199999999999997
aF2.81
aF2.9900000000000007
aI0
aF2.9499999999999997
aF2.63
aF2.9100000000000006
aF2.7900000000000005
aF2.89
aI0
asg6
g7
sg8
VMIA
p2063
sg10
I11890
sg11
g2059
sbsVMcKissic, J.D.
p2064
(i__main__
Player
p2065
(dp2066
g4
(lp2067
I0
aI0
aI0
aI0
aI0
aF3.77
aF3.5700000000000003
aI0
aF4.170000000000001
aF3.7100000000000004
aF3.77
aF3.58
aF3.56
aF3.2400000000000007
aF3.4400000000000004
aF3.2400000000000007
aF3.6200000000000006
aI0
asg6
g38
sg8
VSEA
p2068
sg10
I13108
sg11
g2064
sbsVCelek, Garrett
p2069
(i__main__
Player
p2070
(dp2071
g4
(lp2072
I0
aF3.0100000000000002
aF4.140000000000001
aF3.24
aF3.3000000000000003
aF3.2500000000000004
aF4.11
aF4.0200000000000005
aF3.2500000000000004
aF4.13
aF4.12
aI0
aF3.0700000000000003
aF3.1300000000000003
aF4.0200000000000005
aF3.1300000000000003
aF3.21
aI0
asg6
g16
sg8
VSFO
p2073
sg10
I11007
sg11
g2069
sbsVCook, Dalvin
p2074
(i__main__
Player
p2075
(dp2076
g4
(lp2077
I0
aF10.64
aF13.36
aF15.5
aF13.540000000000001
aF12.940000000000001
aF12.97
aF13.790000000000001
aF13.55
aF14.73
aI0
aF13.13
aF13.36
aF13.180000000000001
aF13.520000000000001
aF14.77
aF14.73
aI0
asg6
g38
sg8
VMIN
p2078
sg10
I13128
sg11
g2074
sbsVClay, Kaelin
p2079
(i__main__
Player
p2080
(dp2081
g4
(lp2082
I0
aI0
aF0.1
aF0.12000000000000002
aF0.15999999999999998
aF0.16999999999999998
aF0.18
aF0.15999999999999998
aF0.15999999999999998
aF0.15999999999999998
aF0.14999999999999997
aI0
aF0.14999999999999997
aF0.11000000000000001
aF0.14999999999999997
aF0.12000000000000002
aF0.15999999999999998
aI0
asg6
g7
sg8
VBUF
p2083
sg10
I12337
sg11
g2079
sbsVSmith-Schuster, JuJu
p2084
(i__main__
Player
p2085
(dp2086
g4
(lp2087
I0
aF7.979000000000001
aF8.77
aF10.209999999999999
aF8.9
aF9.209999999999999
aF8.530000000000001
aI0
aF8.98
aF8.9
aF10.97
aF8.98
aF8.82
aF8.440000000000001
aF8.63
aF9.26
aF9.89
aI0
asg6
g7
sg8
VPIT
p2088
sg10
I13156
sg11
g2084
sbsVTitans, Tennessee
p2089
(i__main__
Player
p2090
(dp2091
g4
(lp2092
I0
aF5.880000000000001
aF8.84
aF4.36
aF4.16
aF5.68
aF3.7
aF3.8
aI0
aF6.44
aF3.9000000000000004
aF6.18
aF8.84
aF5.880000000000001
aF4.36
aF5.32
aF5.12
aI0
asg6
g89
sg8
VTEN
p2093
sg10
I508
sg11
g2089
sbsVHollins, Mack
p2094
(i__main__
Player
p2095
(dp2096
g4
(lp2097
I0
aF0.768
aF0.819
aF0.769
aF0.809
aF0.718
aF0.789
aF0.94
aF0.758
aI0
aF0.798
aF0.789
aF0.789
aF0.8480000000000001
aF0.798
aF0.748
aF0.829
aI0
asg6
g7
sg8
VPHI
p2098
sg10
I13289
sg11
g2094
sbsVWright, James
p2099
(i__main__
Player
p2100
(dp2101
g4
(lp2102
I0
aF0.25
aF0.27
aF0.31000000000000005
aF0.31000000000000005
aF0.27999999999999997
aF0.26
aF0.27999999999999997
aF0.25
aI0
aF0.27
aF0.29
aF0.25
aF0.27
aF0.31000000000000005
aF0.27999999999999997
aF0.29
aI0
asg6
g7
sg8
VIND
p2103
sg10
I11874
sg11
g2099
sbsVBrown, Noah
p2104
(i__main__
Player
p2105
(dp2106
g4
(lp2107
I0
aI0
aF0.14
aF0.12999999999999998
aF0.12100000000000001
aF0.139
aF0.12999999999999998
aF0.12100000000000001
aI0
aF0.14
aF0.15000000000000002
aF0.12999999999999998
aF0.12100000000000001
aF0.12999999999999998
aF0.15000000000000002
aF0.12999999999999998
aF0.133
aI0
asg6
g7
sg8
VDAL
p2108
sg10
I13172
sg11
g2104
sbsVSturgis, Caleb
p2109
(i__main__
Player
p2110
(dp2111
g4
(lp2112
I0
aF4.2
aF5.5
aF3.9000000000000004
aF4.2
aF5.199999999999999
aF4.6
aF5.1
aI0
aF5.0
aF5.199999999999999
aF4.0
aF4.6
aF3.9000000000000004
aF4.6
aF4.2
aF4.6
aI0
asg6
g145
sg8
VLAC
p2113
sg10
I11384
sg11
g2109
sbsVHeyward-Bey, Darrius
p2114
(i__main__
Player
p2115
(dp2116
g4
(lp2117
I0
aF1.13
aF0.9800000000000001
aF1.1
aF0.97
aF1.0700000000000003
aF0.92
aI0
aF0.96
aF0.99
aF1.1300000000000001
aF0.96
aF0.88
aF0.86
aF0.87
aF0.98
aF0.99
aI0
asg6
g7
sg8
VPIT
p2118
sg10
I9452
sg11
g2114
sbsVSmith, Alex
p2119
(i__main__
Player
p2120
(dp2121
g4
(lp2122
I0
aF17.134
aF17.126
aF19.234
aI0
aF16.552000000000003
aF18.972
aF16.604
aF18.956
aF18.744000000000003
aF16.244000000000003
aF19.234
aF16.604
aF14.250000000000002
aF18.956
aF15.502
aF17.436000000000003
aI0
asg6
g27
sg8
VWAS
p2123
sg10
I7813
sg11
g2119
sbsVKing, Tavarres
p2124
(i__main__
Player
p2125
(dp2126
g4
(lp2127
I0
aF2.47
aF2.3800000000000003
aF2.21
aF2.34
aF3.0800000000000005
aF2.16
aF2.3200000000000003
aF2.42
aF2.24
aI0
aF2.3500000000000005
aF2.3800000000000003
aF2.39
aF2.3900000000000006
aF2.24
aF2.24
aI0
asg6
g7
sg8
VMIN
p2128
sg10
I11219
sg11
g2124
sbsVKupp, Cooper
p2129
(i__main__
Player
p2130
(dp2131
g4
(lp2132
I0
aF6.700000000000001
aF6.480000000000001
aF6.5200000000000005
aF6.83
aF7.170000000000001
aF6.860000000000001
aF7.2700000000000005
aF7.260000000000001
aF7.28
aF7.170000000000001
aF6.880000000000001
aI0
aF6.790000000000001
aF7.130000000000001
aF7.32
aF6.480000000000001
aI0
asg6
g7
sg8
VLAR
p2133
sg10
I13164
sg11
g2129
sbsVBeckham, Odell
p2134
(i__main__
Player
p2135
(dp2136
g4
(lp2137
I0
aF9.5
aF11.290000000000001
aF11.68
aF11.26
aF12.52
aF11.38
aF10.56
aF10.39
aI0
aF11.450000000000001
aF11.63
aF11.38
aF10.46
aF10.39
aF11.450000000000001
aF10.55
aI0
asg6
g7
sg8
VNYG
p2138
sg10
I11679
sg11
g2134
sbsVBurkhead, Rex
p2139
(i__main__
Player
p2140
(dp2141
g4
(lp2142
I0
aF11.39
aF9.81
aF10.41
aF10.38
aF9.89
aF9.84
aF9.620000000000001
aF11.469999999999999
aF9.85
aF9.79
aI0
aF10.11
aF8.96
aF10.38
aF10.02
aF11.469999999999999
aI0
asg6
g38
sg8
VNEP
p2143
sg10
I11182
sg11
g2139
sbsVGould, Robbie
p2144
(i__main__
Player
p2145
(dp2146
g4
(lp2147
I0
aF8.3
aF8.7
aF8.2
aF7.8
aF8.2
aF9.0
aF8.2
aF8.2
aF9.5
aF8.3
aI0
aF8.7
aF9.100000000000001
aF8.2
aF9.100000000000001
aF9.0
aI0
asg6
g145
sg8
VSFO
p2148
sg10
I8153
sg11
g2144
sbsVTelfer, Randall
p2149
(i__main__
Player
p2150
(dp2151
g4
(lp2152
I0
aI0
aF0.06999999999999999
aF0.06
aF0.06999999999999999
aF0.06
aF0.06999999999999999
aF0.06999999999999999
aF0.06999999999999999
aI0
aF0.06999999999999999
aF0.06999999999999999
aF0.08000000000000002
aF0.06999999999999999
aF0.06999999999999999
aF0.06999999999999999
aF0.06999999999999999
aI0
asg6
g16
sg8
VIND
p2153
sg10
I12347
sg11
g2149
sbsVWilliams, Damien
p2154
(i__main__
Player
p2155
(dp2156
g4
(lp2157
I0
aF1.3199999999999998
aF1.3599999999999999
aF1.19
aF1.3
aF1.32
aF1.26
aF1.52
aF1.3
aF1.38
aF1.24
aF1.35
aI0
aF1.24
aF1.3599999999999999
aF1.3199999999999998
aF1.35
aI0
asg6
g38
sg8
VKCC
p2158
sg10
I11886
sg11
g2154
sbsVErvin, Tyler
p2159
(i__main__
Player
p2160
(dp2161
g4
(lp2162
I0
aF0.55
aF0.53
aF0.5800000000000001
aF0.56
aF0.55
aF0.6699999999999999
aF0.5
aF0.52
aF0.4600000000000001
aI0
aF0.5
aF0.43
aF0.4800000000000001
aF0.47
aF0.4900000000000001
aF0.43
aI0
asg6
g38
sg8
VHOU
p2163
sg10
I12639
sg11
g2159
sbsVDalton, Andy
p2164
(i__main__
Player
p2165
(dp2166
g4
(lp2167
I0
aF15.63
aF12.612
aF17.042
aF16.830000000000002
aF17.334
aF15.088
aF13.946
aF14.769999999999998
aI0
aF15.026
aF12.612
aF17.252000000000002
aF14.828
aF12.466
aF13.934
aF17.252000000000002
aI0
asg6
g27
sg8
VCIN
p2168
sg10
I10313
sg11
g2164
sbsVGodwin, Chris
p2169
(i__main__
Player
p2170
(dp2171
g4
(lp2172
I0
aF3.38
aF3.5300000000000002
aF3.63
aF3.4300000000000006
aI0
aF3.426
aF3.38
aF3.1100000000000003
aF4.16
aF3.4300000000000006
aF3.63
aF3.5600000000000005
aF4.16
aF3.6
aF3.3
aF3.54
aI0
asg6
g7
sg8
VTBB
p2173
sg10
I13163
sg11
g2169
sbsVMartino, Freddie
p2174
(i__main__
Player
p2175
(dp2176
g4
(lp2177
I0
aF1.1300000000000001
aF1.2300000000000002
aF1.2600000000000002
aF1.1800000000000002
aI0
aF1.19
aF1.1700000000000002
aF1.09
aF1.49
aF1.19
aF1.2600000000000002
aF1.25
aF1.49
aF1.19
aF1.1400000000000001
aF1.25
aI0
asg6
g7
sg8
VTBB
p2178
sg10
I12062
sg11
g2174
sbsVWadley, Akrum
p2179
(i__main__
Player
p2180
(dp2181
g4
(lp2182
I0
aI0
aI0
aF0.03
aI0
aI0
aI0
aI0
aI0
aI0
aI0
aI0
aI0
aI0
aF0.03
aI0
aI0
aI0
asg6
g38
sg8
VTEN
p2183
sg10
I13609
sg11
g2179
sbsVChubb, Nick
p2184
(i__main__
Player
p2185
(dp2186
g4
(lp2187
I0
aF1.5099999999999998
aF5.340000000000001
aF5.49
aF5.28
aF5.390000000000001
aF5.330000000000001
aF5.330000000000001
aF5.3900000000000015
aF5.300000000000001
aF5.23
aI0
aF5.53
aF5.430000000000001
aF5.27
aF5.290000000000001
aF5.53
aI0
asg6
g38
sg8
VCLE
p2188
sg10
I13610
sg11
g2184
sbsVJarwin, Blake
p2189
(i__main__
Player
p2190
(dp2191
g4
(lp2192
I0
aF0.58
aF0.68
aF0.5599999999999999
aF0.66
aF0.66
aF0.5599999999999999
aF0.66
aI0
aF0.65
aF0.5700000000000001
aF0.6200000000000001
aF0.66
aF0.5700000000000001
aF0.5700000000000001
aF0.66
aF0.53
aI0
asg6
g16
sg8
VDAL
p2193
sg10
I13722
sg11
g2189
sbsVMcCarron, Riley
p2194
(i__main__
Player
p2195
(dp2196
g4
(lp2197
I0
aF0.30000000000000004
aF0.27999999999999997
aF0.27
aF0.27
aI0
aI0
aI0
aI0
aI0
aI0
aI0
aI0
aI0
aI0
aI0
aI0
aI0
asg6
g7
sg8
VNEP
p2198
sg10
I13420
sg11
g2194
sbsVAnderson, Robby
p2199
(i__main__
Player
p2200
(dp2201
g4
(lp2202
I0
aF7.17
aF7.0600000000000005
aF7.370000000000001
aF8.040000000000001
aF7.2
aF8.170000000000002
aF7.19
aF8.14
aF7.0600000000000005
aF6.9799999999999995
aI0
aF8.21
aF8.440000000000001
aF6.9799999999999995
aF8.63
aF8.290000000000001
aI0
asg6
g7
sg8
VNYJ
p2203
sg10
I12930
sg11
g2199
sbsVTomlinson, Eric
p2204
(i__main__
Player
p2205
(dp2206
g4
(lp2207
I0
aF0.31000000000000005
aF0.34
aF0.35000000000000003
aF0.32000000000000006
aF0.30000000000000004
aF0.32000000000000006
aF0.25
aF0.27999999999999997
aF0.34
aF0.34
aI0
aF0.25
aF0.31000000000000005
aF0.34
aF0.32000000000000006
aF0.32000000000000006
aI0
asg6
g16
sg8
VNYJ
p2208
sg10
I13065
sg11
g2204
sbsVRoethlisberger, Ben
p2209
(i__main__
Player
p2210
(dp2211
g4
(lp2212
I0
aF21.154
aF15.53
aF15.78
aF13.662
aF18.514000000000003
aF17.886
aI0
aF18.844
aF13.662
aF18.95
aF15.694
aF16.26
aF13.396000000000003
aF15.537999999999998
aF15.132
aF16.46
aI0
asg6
g27
sg8
VPIT
p2213
sg10
I7401
sg11
g2209
sbsVWalton, Mark
p2214
(i__main__
Player
p2215
(dp2216
g4
(lp2217
I0
aF0.45000000000000007
aF0.47000000000000003
aF0.44000000000000006
aF0.43000000000000005
aF0.49000000000000005
aF0.44000000000000006
aF0.44000000000000006
aF0.4600000000000001
aI0
aF0.4600000000000001
aF0.47000000000000003
aF0.52
aF0.43000000000000005
aF0.4600000000000001
aF0.44000000000000006
aF0.52
aI0
asg6
g38
sg8
VCIN
p2218
sg10
I13616
sg11
g2214
sbsVAllen, Keenan
p2219
(i__main__
Player
p2220
(dp2221
g4
(lp2222
I0
aF10.61
aF10.39
aF10.969999999999999
aF11.46
aF10.36
aF10.899999999999999
aF12.120000000000001
aI0
aF11.32
aF10.36
aF10.5
aF10.100000000000001
aF12.16
aF10.350000000000001
aF10.61
aF10.71
aI0
asg6
g7
sg8
VLAC
p2223
sg10
I11222
sg11
g2219
sbsVCrowder, Jamison
p2224
(i__main__
Player
p2225
(dp2226
g4
(lp2227
I0
aF5.0200000000000005
aF6.1899999999999995
aF6.3
aI0
aF6.26
aF7.14
aF6.38
aF6.52
aF6.2
aF6.510000000000001
aF6.54
aF6.38
aF6.239999999999999
aF6.52
aF5.47
aF6.3999999999999995
aI0
asg6
g7
sg8
VWAS
p2228
sg10
I12184
sg11
g2224
sbsVCook, Jared
p2229
(i__main__
Player
p2230
(dp2231
g4
(lp2232
I0
aF5.28
aF4.6000000000000005
aF5.860000000000001
aF5.300000000000001
aF4.42
aF4.170000000000001
aI0
aF5.390000000000001
aF5.4
aF4.42
aF4.47
aF4.260000000000001
aF4.45
aF4.19
aF5.38
aF4.6000000000000005
aI0
asg6
g16
sg8
VOAK
p2233
sg10
I9474
sg11
g2229
sbsVHines, Nyheim
p2234
(i__main__
Player
p2235
(dp2236
g4
(lp2237
I0
aF0.6600000000000001
aF0.6400000000000001
aF0.54
aF0.5900000000000001
aF0.57
aF0.6300000000000001
aF0.7000000000000001
aF0.55
aI0
aF0.5900000000000001
aF0.56
aF0.6500000000000001
aF0.5900000000000001
aF0.5900000000000001
aF0.57
aF0.6100000000000001
aI0
asg6
g38
sg8
VIND
p2238
sg10
I13622
sg11
g2234
sbsVChiefs, Kansas City
p2239
(i__main__
Player
p2240
(dp2241
g4
(lp2242
I0
aF4.800000000000001
aF4.9
aF5.4
aF7.8
aF5.4
aF4.9
aF7.4
aF7.8
aF8.8
aF8.3
aF5.199999999999999
aI0
aF7.5
aF4.800000000000001
aF4.800000000000001
aF7.5
aI0
asg6
g89
sg8
VKCC
p2243
sg10
I512
sg11
g2239
sbsVBibbs, Kapri
p2244
(i__main__
Player
p2245
(dp2246
g4
(lp2247
I0
aF3.12
aF3.1500000000000004
aF3.1300000000000003
aI0
aF3.1900000000000004
aF2.48
aF2.5000000000000004
aF3.4800000000000004
aF2.42
aF3.16
aF3.31
aF2.5000000000000004
aF2.3900000000000006
aF3.4800000000000004
aF2.5900000000000003
aF2.5000000000000004
aI0
asg6
g38
sg8
VWAS
p2248
sg10
I11895
sg11
g2244
sbsVMalone, Josh
p2249
(i__main__
Player
p2250
(dp2251
g4
(lp2252
I0
aI0
aF0.23800000000000002
aF0.28
aF0.249
aF0.23800000000000002
aF0.259
aF0.239
aF0.26
aI0
aF0.249
aF0.23800000000000002
aF0.259
aF0.23800000000000002
aF0.22800000000000004
aF0.22800000000000004
aF0.259
aI0
asg6
g7
sg8
VCIN
p2253
sg10
I13235
sg11
g2249
sbsVGreen, Virgil
p2254
(i__main__
Player
p2255
(dp2256
g4
(lp2257
I0
aF3.47
aF3.95
aF4.010000000000001
aF4.08
aF4.2700000000000005
aF4.1000000000000005
aF4.04
aI0
aF3.7300000000000004
aF4.2700000000000005
aF4.08
aF3.8800000000000003
aF3.7300000000000004
aF4.0600000000000005
aF3.8200000000000003
aF3.7800000000000002
aI0
asg6
g16
sg8
VLAC
p2258
sg10
I10432
sg11
g2254
sbsVBourne, Kendrick
p2259
(i__main__
Player
p2260
(dp2261
g4
(lp2262
I0
aF1.1300000000000001
aF1.12
aF1.14
aF1.06
aF1.05
aF1.21
aF1.2
aF1.05
aF1.0999999999999999
aF1.26
aI0
aF1.27
aF1.37
aF1.1300000000000001
aF1.37
aF1.1600000000000001
aI0
asg6
g7
sg8
VSFO
p2263
sg10
I13418
sg11
g2259
sbsVFoles, Nick
p2264
(i__main__
Player
p2265
(dp2266
g4
(lp2267
I0
aF2.224
aF3.2800000000000007
aF3.3480000000000003
aF3.382
aF2.52
aF3.4760000000000004
aF3.4580000000000006
aF3.2600000000000002
aI0
aF3.4119999999999995
aF3.3200000000000007
aF3.4760000000000004
aF3.02
aF3.4119999999999995
aF3.27
aF3.462
aI0
asg6
g27
sg8
VPHI
p2268
sg10
I10699
sg11
g2264
sbsVAjayi, Jay
p2269
(i__main__
Player
p2270
(dp2271
g4
(lp2272
I0
aF5.789999999999999
aF10.049999999999999
aF10.0
aF9.89
aF9.6
aF11.08
aF9.800000000000002
aF9.950000000000001
aI0
aF9.840000000000002
aF10.07
aF11.08
aF10.61
aF9.840000000000002
aF10.09
aF10.66
aI0
asg6
g38
sg8
VPHI
p2273
sg10
I12154
sg11
g2269
sbsVBreida, Matt
p2274
(i__main__
Player
p2275
(dp2276
g4
(lp2277
I0
aF5.28
aF6.07
aF5.5200000000000005
aF5.630000000000001
aF5.260000000000001
aF5.540000000000001
aF5.710000000000001
aF5.260000000000001
aF5.450000000000001
aF5.790000000000001
aI0
aF5.590000000000001
aF5.580000000000001
aF5.480000000000001
aF5.580000000000001
aF5.330000000000001
aI0
asg6
g38
sg8
VSFO
p2278
sg10
I13378
sg11
g2274
sbsVAllen, Josh
p2279
(i__main__
Player
p2280
(dp2281
g4
(lp2282
I0
aF13.432000000000002
aF13.254
aF13.428
aF16.306
aF15.420000000000002
aF16.296000000000003
aF15.16
aF13.902000000000001
aF14.228
aF16.098000000000003
aI0
aF14.396000000000003
aF16.998
aF16.098000000000003
aF15.530000000000001
aF13.902000000000001
aI0
asg6
g27
sg8
VBUF
p2283
sg10
I13589
sg11
g2279
sbsVGolladay, Kenny
p2284
(i__main__
Player
p2285
(dp2286
g4
(lp2287
I0
aF4.510000000000001
aF6.16
aF6.040000000000001
aF6.090000000000001
aF6.13
aI0
aF5.680000000000001
aF6.090000000000001
aF5.16
aF5.98
aF6.800000000000001
aF5.98
aF5.890000000000001
aF5.53
aF5.62
aF5.16
aI0
asg6
g7
sg8
VDET
p2288
sg10
I13277
sg11
g2284
sbsVSuccop, Ryan
p2289
(i__main__
Player
p2290
(dp2291
g4
(lp2292
I0
aF7.79
aF8.99
aF7.09
aF6.66
aF8.79
aF7.1899999999999995
aF6.66
aI0
aF5.96
aF7.1899999999999995
aF7.1899999999999995
aF8.99
aF7.6899999999999995
aF7.09
aF7.6899999999999995
aF8.89
aI0
asg6
g145
sg8
VTEN
p2293
sg10
I9686
sg11
g2289
sbsVRoberts, Seth
p2294
(i__main__
Player
p2295
(dp2296
g4
(lp2297
I0
aF2.5199999999999996
aF2.56
aF2.42
aF2.5
aF2.2199999999999998
aF2.6199999999999997
aI0
aF2.58
aF2.66
aF2.2199999999999998
aF2.23
aF2.38
aF2.33
aF2.68
aF2.3
aF2.56
aI0
asg6
g7
sg8
VOAK
p2298
sg10
I12471
sg11
g2294
sbsVHunter, Justin
p2299
(i__main__
Player
p2300
(dp2301
g4
(lp2302
I0
aF1.064
aF1.054
aF1.125
aF1.094
aF1.094
aF0.976
aI0
aF1.1400000000000001
aF1.19
aF1.5300000000000002
aF1.31
aF1.15
aF1.1
aF1.1400000000000001
aF1.26
aF1.27
aI0
asg6
g7
sg8
VPIT
p2303
sg10
I11212
sg11
g2299
sbsVWilliams, Jamaal
p2304
(i__main__
Player
p2305
(dp2306
g4
(lp2307
I0
aF9.740000000000002
aF9.93
aF11.860000000000001
aF13.47
aF12.01
aF9.86
aI0
aF11.330000000000002
aF10.950000000000001
aF12.07
aF11.31
aF9.93
aF10.760000000000002
aF10.72
aF10.56
aF11.64
aI0
asg6
g38
sg8
VGBP
p2308
sg10
I13139
sg11
g2304
sbsVHolton, Johnny
p2309
(i__main__
Player
p2310
(dp2311
g4
(lp2312
I0
aF1.7840000000000003
aF1.876
aF1.7040000000000002
aF1.7740000000000005
aF1.6340000000000003
aF1.8550000000000004
aI0
aF1.8050000000000002
aF1.8850000000000002
aF1.6340000000000003
aF1.6140000000000003
aF1.7240000000000002
aF1.6940000000000004
aF1.9050000000000002
aF1.6640000000000001
aF1.876
aI0
asg6
g7
sg8
VOAK
p2313
sg10
I12916
sg11
g2309
sbsVLions, Detroit
p2314
(i__main__
Player
p2315
(dp2316
g4
(lp2317
I0
aF8.9
aF5.699999999999999
aF5.04
aF9.399999999999999
aF7.699999999999999
aI0
aF7.6
aF7.6
aF5.699999999999999
aF8.2
aF4.48
aF8.2
aF5.140000000000001
aF9.399999999999999
aF7.300000000000001
aF5.699999999999999
aI0
asg6
g89
sg8
VDET
p2318
sg10
I522
sg11
g2314
sbsVGraham, Jimmy
p2319
(i__main__
Player
p2320
(dp2321
g4
(lp2322
I0
aF5.48
aF5.57
aF6.61
aF6.58
aF6.7700000000000005
aF6.7
aI0
aF6.63
aF5.550000000000001
aF6.95
aF5.770000000000001
aF5.57
aF6.5200000000000005
aF6.63
aF6.4399999999999995
aF6.59
aI0
asg6
g16
sg8
VGBP
p2323
sg10
I9925
sg11
g2319
sbsVWallace, Mike
p2324
(i__main__
Player
p2325
(dp2326
g4
(lp2327
I0
aF5.27
aF5.57
aF5.300000000000001
aF5.44
aF4.3500000000000005
aF5.430000000000001
aF6.120000000000001
aF5.12
aI0
aF5.25
aF5.34
aF5.430000000000001
aF5.2
aF5.25
aF5.2
aF5.610000000000001
aI0
asg6
g7
sg8
VPHI
p2328
sg10
I9525
sg11
g2324
sbsVConley, Chris
p2329
(i__main__
Player
p2330
(dp2331
g4
(lp2332
I0
aF2.3499999999999996
aF2.7800000000000002
aF2.7600000000000002
aF2.43
aF2.6
aF2.7199999999999998
aF2.42
aF2.43
aF2.5900000000000003
aF2.3499999999999996
aF2.61
aI0
aF2.49
aF2.53
aF2.3499999999999996
aF2.71
aI0
asg6
g7
sg8
VKCC
p2333
sg10
I12257
sg11
g2329
sbsVCarson, Chris
p2334
(i__main__
Player
p2335
(dp2336
g4
(lp2337
I0
aF6.529999999999999
aF6.33
aF6.540000000000001
aF6.21
aF6.700000000000001
aF6.5
aI0
aF7.4399999999999995
aF6.75
aF6.700000000000001
aF6.640000000000001
aF6.58
aF5.92
aF6.1899999999999995
aF5.92
aF6.6
aI0
asg6
g38
sg8
VSEA
p2338
sg10
I13364
sg11
g2334
sbsVUzomah, C.J.
p2339
(i__main__
Player
p2340
(dp2341
g4
(lp2342
I0
aF0.52
aF0.48000000000000004
aF0.49
aF0.52
aF0.5800000000000001
aF0.5
aF0.5
aF0.46
aI0
aF0.48000000000000004
aF0.48000000000000004
aF0.53
aF0.52
aF0.51
aF0.56
aF0.53
aI0
asg6
g16
sg8
VCIN
p2343
sg10
I12317
sg11
g2339
sbsVBrown, Philly
p2344
(i__main__
Player
p2345
(dp2346
g4
(lp2347
I0
aI0
aF0.22000000000000003
aF0.23000000000000004
aF0.23000000000000004
aF0.24000000000000005
aF0.24000000000000005
aF0.22000000000000003
aF0.23000000000000004
aF0.26
aI0
aF0.23
aF0.26
aF0.23000000000000004
aF0.25
aF0.24000000000000005
aF0.22000000000000003
aI0
asg6
g7
sg8
VDEN
p2348
sg10
I11972
sg11
g2344
sbsVJackson, Darius
p2349
(i__main__
Player
p2350
(dp2351
g4
(lp2352
I0
aF-0.010000000000000002
aF-0.012
aF-0.011000000000000001
aF-0.013000000000000001
aF-0.012
aF-0.011000000000000001
aF-0.012
aI0
aF-0.011000000000000001
aF-0.010000000000000002
aF-0.013000000000000001
aF-0.012
aF-0.011000000000000001
aF-0.010000000000000002
aF-0.011000000000000001
aF-0.011000000000000001
aI0
asg6
g38
sg8
VDAL
p2353
sg10
I12832
sg11
g2349
sbsVMcCaffrey, Christian
p2354
(i__main__
Player
p2355
(dp2356
g4
(lp2357
I0
aF9.590000000000002
aF10.02
aF12.710000000000003
aI0
aF11.430000000000001
aF11.760000000000003
aF9.91
aF11.370000000000003
aF11.13
aF11.370000000000003
aF12.510000000000003
aF10.559999999999999
aF11.13
aF11.4
aF11.230000000000002
aF10.02
aI0
asg6
g38
sg8
VCAR
p2358
sg10
I13130
sg11
g2354
sbsVSmith, Tre'Quan
p2359
(i__main__
Player
p2360
(dp2361
g4
(lp2362
I0
aF-0.2
aF-0.1
aF-0.1
aF-0.1
aF-0.1
aI0
aF-0.1
aF-0.1
aF-0.1
aF-0.12
aF-0.1
aF-0.1
aF-0.1
aF-0.18
aF-0.08
aF-0.1
aI0
asg6
g7
sg8
VNOR
p2363
sg10
I13645
sg11
g2359
sbsVMichel, Sony
p2364
(i__main__
Player
p2365
(dp2366
g4
(lp2367
I0
aI0
aF10.14
aF11.5
aF11.43
aF10.18
aF10.06
aF9.23
aF12.739999999999998
aF10.129999999999999
aF10.06
aI0
aF10.520000000000001
aF9.15
aF11.43
aF10.49
aF12.739999999999998
aI0
asg6
g38
sg8
VNEP
p2368
sg10
I13607
sg11
g2364
sbsVMayfield, Baker
p2369
(i__main__
Player
p2370
(dp2371
g4
(lp2372
I0
aF1.1179999999999999
aF3.458
aF3.62
aF3.3840000000000003
aF3.274
aF3.2260000000000004
aF3.4360000000000004
aF3.574
aF3.3840000000000003
aF3.6019999999999994
aI0
aF3.596
aF3.6239999999999997
aF3.62
aF3.4339999999999997
aF3.596
aI0
asg6
g27
sg8
VCLE
p2373
sg10
I13590
sg11
g2369
sbsVAndrews, Mark
p2374
(i__main__
Player
p2375
(dp2376
g4
(lp2377
I0
aF0.14
aF0.15000000000000002
aI0
aI0
aI0
aI0
aI0
aI0
aI0
aI0
aI0
aI0
aI0
aI0
aI0
aI0
aI0
asg6
g16
sg8
VBAL
p2378
sg10
I13671
sg11
g2374
sbsVPeterson, Adrian
p2379
(i__main__
Player
p2380
(dp2381
g4
(lp2382
I0
aF8.070000000000002
aF8.540000000000001
aF8.459999999999999
aI0
aF8.749999999999998
aF8.19
aF8.33
aF8.959999999999999
aF8.01
aF8.67
aF9.08
aF8.33
aF7.9300000000000015
aF8.959999999999999
aF8.500000000000002
aF8.38
aI0
asg6
g38
sg8
VWAS
p2383
sg10
I8658
sg11
g2379
sbsVAmaro, Jace
p2384
(i__main__
Player
p2385
(dp2386
g4
(lp2387
I0
aF0.11000000000000001
aI0
aI0
aI0
aI0
aI0
aI0
aI0
aI0
aI0
aI0
aI0
aI0
aI0
aI0
aI0
aI0
asg6
g16
sg8
VKCC
p2388
sg10
I11696
sg11
g2384
sbsVBlount, LeGarrette
p2389
(i__main__
Player
p2390
(dp2391
g4
(lp2392
I0
aF3.6900000000000004
aF3.2
aF3.3300000000000005
aF3.44
aF3.37
aI0
aF3.9199999999999995
aF3.5500000000000003
aF3.14
aF3.22
aF3.3400000000000003
aF3.22
aF3.5600000000000005
aF3.24
aF4.300000000000002
aF3.14
aI0
asg6
g38
sg8
VDET
p2393
sg10
I9898
sg11
g2389
sbsVDissly, Will
p2394
(i__main__
Player
p2395
(dp2396
g4
(lp2397
I0
aF1.59
aF1.5
aF1.58
aF1.45
aF1.58
aF1.7000000000000002
aI0
aI0
aI0
aI0
aI0
aI0
aF0.04000000000000001
aI0
aF0.04000000000000001
aI0
aI0
asg6
g16
sg8
VSEA
p2398
sg10
I13763
sg11
g2394
sbsVHollister, Jacob
p2399
(i__main__
Player
p2400
(dp2401
g4
(lp2402
I0
aF0.39
aF0.31999999999999995
aF0.38
aF0.4
aF0.37
aF0.3400000000000001
aF0.33000000000000007
aF0.37
aF0.38
aF0.3600000000000001
aI0
aF0.3500000000000001
aF0.30000000000000004
aF0.4
aF0.31999999999999995
aF0.37
aI0
asg6
g16
sg8
VNEP
p2403
sg10
I13391
sg11
g2399
sbsVPenny, Rashaad
p2404
(i__main__
Player
p2405
(dp2406
g4
(lp2407
I0
aI0
aF8.020000000000001
aF8.090000000000002
aF7.98
aF8.15
aF8.090000000000002
aI0
aF8.520000000000001
aF8.2
aF8.15
aF8.110000000000001
aF8.090000000000002
aF7.8900000000000015
aF7.98
aF7.8900000000000015
aF8.13
aI0
asg6
g38
sg8
VSEA
p2408
sg10
I13608
sg11
g2404
sbsVProsise, C.J.
p2409
(i__main__
Player
p2410
(dp2411
g4
(lp2412
I0
aF2.38
aF2.62
aF2.7
aF2.4899999999999998
aF2.7399999999999998
aF2.6900000000000004
aI0
aF3.08
aF2.7800000000000002
aF2.7399999999999998
aF2.75
aF2.6399999999999997
aF2.5399999999999996
aF2.59
aF2.5399999999999996
aF2.7199999999999998
aI0
asg6
g38
sg8
VSEA
p2413
sg10
I12627
sg11
g2409
sbsVWashington, James
p2414
(i__main__
Player
p2415
(dp2416
g4
(lp2417
I0
aF2.68
aF2.59
aF2.79
aF2.5
aF2.67
aF2.3900000000000006
aI0
aF2.68
aF2.5
aF3.08
aF2.63
aF2.5600000000000005
aF2.3900000000000006
aF2.51
aF2.6900000000000004
aF2.6900000000000004
aI0
asg6
g7
sg8
VPIT
p2418
sg10
I13631
sg11
g2414
sbsVCook, Connor
p2419
(i__main__
Player
p2420
(dp2421
g4
(lp2422
I0
aF1.2890000000000001
aF1.5739999999999998
aF1.9660000000000004
aF1.946
aF0.6920000000000001
aF1.249
aI0
aF1.3890000000000002
aF1.938
aF0.6920000000000001
aF1.233
aF0.7239999999999999
aF1.2770000000000001
aF1.3780000000000001
aF1.8739999999999999
aF1.5739999999999998
aI0
asg6
g27
sg8
VOAK
p2423
sg10
I12613
sg11
g2419
sbsVSaints, New Orleans
p2424
(i__main__
Player
p2425
(dp2426
g4
(lp2427
I0
aF7.299999999999999
aF9.1
aF5.800000000000001
aF7.1
aF6.799999999999999
aI0
aF5.24
aF5.800000000000001
aF5.800000000000001
aF7.399999999999999
aF5.700000000000001
aF5.800000000000001
aF8.2
aF7.299999999999999
aF4.98
aF5.340000000000001
aI0
asg6
g89
sg8
VNOR
p2428
sg10
I529
sg11
g2424
sbsVHoward, Jordan
p2429
(i__main__
Player
p2430
(dp2431
g4
(lp2432
I0
aF11.65
aF12.040000000000001
aF11.490000000000002
aF11.930000000000001
aI0
aF13.34
aF11.680000000000001
aF12.340000000000002
aF14.12
aF13.43
aF11.430000000000001
aF13.43
aF12.290000000000001
aF12.040000000000001
aF11.81
aF11.17
aI0
asg6
g38
sg8
VCHI
p2433
sg10
I12634
sg11
g2429
sbsVFalcons, Atlanta
p2434
(i__main__
Player
p2435
(dp2436
g4
(lp2437
I0
aF3.9000000000000004
aF3.5
aF3.8
aF7.2
aF3.8
aF7.1
aF7.2
aI0
aF4.8
aF8.4
aF7.8999999999999995
aF3.8
aF3.7
aF7.3
aF8.0
aF3.5
aI0
asg6
g89
sg8
VATL
p2438
sg10
I526
sg11
g2434
sbsVRodgers, Jacquizz
p2439
(i__main__
Player
p2440
(dp2441
g4
(lp2442
I0
aF2.4800000000000004
aF2.24
aF2.5300000000000002
aF2.3900000000000006
aI0
aF2.2700000000000005
aF2.55
aF2.8200000000000003
aF2.26
aF2.6399999999999997
aF2.63
aF2.1900000000000004
aF2.26
aF2.4800000000000004
aF2.5300000000000002
aF2.3900000000000006
aI0
asg6
g38
sg8
VTBB
p2443
sg10
I10300
sg11
g2439
sbsVWright, Kendall
p2444
(i__main__
Player
p2445
(dp2446
g4
(lp2447
I0
aF2.6900000000000004
aF2.3900000000000006
aF2.2100000000000004
aF2.3800000000000003
aF2.4600000000000004
aF2.15
aF2.3600000000000003
aF2.4400000000000004
aF2.2100000000000004
aI0
aF2.3400000000000003
aF2.3900000000000006
aF2.4400000000000004
aF2.47
aF2.25
aF2.2100000000000004
aI0
asg6
g7
sg8
VMIN
p2448
sg10
I10720
sg11
g2444
sbsVKizer, DeShone
p2449
(i__main__
Player
p2450
(dp2451
g4
(lp2452
I0
aF2.5839999999999996
aF2.4639999999999995
aF2.646
aF2.5279999999999996
aF3.1140000000000003
aF3.256
aI0
aF2.7459999999999996
aF2.6419999999999995
aF3.286
aF2.644
aF2.4639999999999995
aF2.63
aF3.2340000000000004
aF2.5839999999999996
aF3.21
aI0
asg6
g27
sg8
VGBP
p2453
sg10
I13114
sg11
g2449
sbsVGrant, Corey
p2454
(i__main__
Player
p2455
(dp2456
g4
(lp2457
I0
aF3.47
aF3.2
aF3.16
aF3.47
aF3.2
aF3.19
aF3.57
aF3.0500000000000003
aI0
aF3.4200000000000004
aF3.4000000000000004
aF3.81
aF3.4200000000000004
aF3.16
aF3.56
aF3.6300000000000003
aI0
asg6
g38
sg8
VJAC
p2458
sg10
I12402
sg11
g2454
sbsVRodgers, Richard
p2459
(i__main__
Player
p2460
(dp2461
g4
(lp2462
I0
aF0.52
aF0.44
aF0.52
aF0.51
aF0.42000000000000004
aF0.51
aF0.46
aF0.45
aI0
aF0.51
aF0.46
aF0.51
aF0.49
aF0.51
aF0.51
aF0.52
aI0
asg6
g16
sg8
VPHI
p2463
sg10
I11785
sg11
g2459
sbsVSamuel, Curtis
p2464
(i__main__
Player
p2465
(dp2466
g4
(lp2467
I0
aF0.9500000000000001
aF0.75
aF0.66
aI0
aF0.7900000000000001
aF0.71
aF0.7500000000000001
aF0.7000000000000001
aF0.8400000000000001
aF0.77
aF0.68
aF0.75
aF0.8400000000000001
aF0.71
aF0.72
aF0.75
aI0
asg6
g7
sg8
VCAR
p2468
sg10
I13157
sg11
g2464
sbsVStreater, Rod
p2469
(i__main__
Player
p2470
(dp2471
g4
(lp2472
I0
aF0.6000000000000001
aF0.51
aF0.5900000000000001
aF0.62
aF0.63
aF0.64
aF0.6100000000000001
aF0.6100000000000001
aF0.6100000000000001
aF0.6000000000000001
aI0
aF0.6000000000000001
aF0.51
aF0.6000000000000001
aF0.5900000000000001
aF0.6100000000000001
aI0
asg6
g7
sg8
VBUF
p2473
sg10
I10955
sg11
g2469
sbsVJones, Taiwan
p2474
(i__main__
Player
p2475
(dp2476
g4
(lp2477
I0
aF0.020000000000000004
aF0.020000000000000004
aF0.020000000000000004
aF0.020000000000000004
aF0.020000000000000004
aF0.020000000000000004
aF0.020000000000000004
aF0.020000000000000004
aF0.020000000000000004
aF0.010000000000000002
aI0
aF0.020000000000000004
aF-0.0009999999999999974
aF0.010000000000000002
aF0.020000000000000004
aF0.020000000000000004
aI0
asg6
g38
sg8
VBUF
p2478
sg10
I10368
sg11
g2474
sbsVCooper, Amari
p2479
(i__main__
Player
p2480
(dp2481
g4
(lp2482
I0
aF7.770000000000001
aF8.68
aF8.620000000000001
aF8.9
aF7.83
aF9.17
aI0
aF9.08
aF9.26
aF7.83
aF7.790000000000001
aF8.74
aF8.83
aF9.32
aF8.540000000000001
aF8.68
aI0
asg6
g7
sg8
VOAK
p2483
sg10
I12175
sg11
g2479
sbsVWatkins, Sammy
p2484
(i__main__
Player
p2485
(dp2486
g4
(lp2487
I0
aF4.75
aF8.27
aF8.31
aF7.950000000000001
aF8.06
aF8.17
aF7.890000000000001
aF7.950000000000001
aF8.06
aF7.82
aF8.08
aI0
aF7.98
aF8.0
aF7.76
aF8.15
aI0
asg6
g7
sg8
VKCC
p2488
sg10
I11670
sg11
g2484
sbsVKoehn, Marshall
p2489
(i__main__
Player
p2490
(dp2491
g4
(lp2492
I0
aF0.03
aI0
aI0
aI0
aI0
aI0
aI0
aI0
aI0
aI0
aI0
aI0
aI0
aI0
aI0
aI0
aI0
asg6
g145
sg8
VNYG
p2493
sg10
I12885
sg11
g2489
sbsVHamilton, DaeSean
p2494
(i__main__
Player
p2495
(dp2496
g4
(lp2497
I0
aF0.6700000000000002
aF0.5700000000000001
aF0.6200000000000001
aF0.75
aF0.6200000000000001
aF0.6400000000000001
aF0.5700000000000001
aF0.75
aF0.71
aI0
aF0.5500000000000002
aF0.6900000000000002
aF0.6100000000000001
aF0.6799999999999999
aF0.6300000000000001
aF0.5700000000000001
aI0
asg6
g7
sg8
VDEN
p2498
sg10
I13649
sg11
g2494
sbsVJohnson, Marcus
p2499
(i__main__
Player
p2500
(dp2501
g4
(lp2502
I0
aF0.010000000000000009
aF0.02999999999999997
aF0.04999999999999999
aF-0.010000000000000009
aF0.07
aF0.039999999999999994
aI0
aF0.06
aF0.030000000000000013
aF0.07
aF0.07999999999999999
aF0.12000000000000002
aF0.07
aF0.06
aF0.07
aF0.07
aI0
asg6
g7
sg8
VSEA
p2503
sg10
I13387
sg11
g2499
sbsVWatson, Deshaun
p2504
(i__main__
Player
p2505
(dp2506
g4
(lp2507
I0
aF13.448
aF19.715999999999998
aF20.656
aF18.799999999999997
aF18.906
aF16.342000000000002
aF17.65
aF20.635999999999996
aF18.412
aI0
aF17.669999999999998
aF19.715999999999998
aF20.561999999999998
aF18.799999999999997
aF20.235999999999997
aF16.773999999999997
aI0
asg6
g27
sg8
VHOU
p2508
sg10
I13113
sg11
g2504
sbsVMurphy, Marcus
p2509
(i__main__
Player
p2510
(dp2511
g4
(lp2512
I0
aF0.10800000000000001
aF0.10800000000000001
aF0.09700000000000002
aF0.10800000000000001
aF0.10800000000000001
aF0.11900000000000001
aF0.10800000000000001
aF0.098
aF0.098
aF0.10800000000000001
aI0
aF0.10800000000000001
aF0.2
aF0.10800000000000001
aF0.11900000000000001
aF0.098
aI0
asg6
g38
sg8
VBUF
p2513
sg10
I12367
sg11
g2509
sbsVMartin, Doug
p2514
(i__main__
Player
p2515
(dp2516
g4
(lp2517
I0
aF4.2700000000000005
aF5.38
aF6.39
aF5.590000000000001
aF5.42
aF5.49
aI0
aF5.59
aF5.0600000000000005
aF5.42
aF5.22
aF5.58
aF5.45
aF5.580000000000001
aF6.5200000000000005
aF5.38
aI0
asg6
g38
sg8
VOAK
p2518
sg10
I10709
sg11
g2514
sbsVSmith, Geno
p2519
(i__main__
Player
p2520
(dp2521
g4
(lp2522
I0
aF-0.021
aF-0.006999999999999999
aF-0.023000000000000003
aF-0.018
aF-0.025
aF-0.018
aF-0.019000000000000003
aI0
aF-0.022000000000000002
aF-0.025
aF-0.021
aF-0.023000000000000003
aF-0.021
aF-0.019000000000000003
aF-0.021
aF-0.024
aI0
asg6
g27
sg8
VLAC
p2523
sg10
I11150
sg11
g2519
sbsVDarnold, Sam
p2524
(i__main__
Player
p2525
(dp2526
g4
(lp2527
I0
aF12.916
aF13.682000000000002
aF13.712
aF11.107999999999999
aF11.324000000000002
aF12.180000000000001
aF9.266
aF10.224
aF13.682000000000002
aF9.783999999999999
aI0
aF10.24
aF12.728000000000002
aF9.783999999999999
aF13.796
aF13.82
aI0
asg6
g27
sg8
VNYJ
p2528
sg10
I13592
sg11
g2524
sbsVBrady, Tom
p2529
(i__main__
Player
p2530
(dp2531
g4
(lp2532
I0
aF23.208000000000002
aF17.840000000000003
aF20.320000000000004
aF21.072
aF19.130000000000003
aF17.758000000000003
aF17.094
aF15.979999999999999
aF21.118
aF20.076
aI0
aF20.774
aF15.784
aF21.072
aF18.962000000000003
aF15.979999999999999
aI0
asg6
g27
sg8
VNEP
p2533
sg10
I5848
sg11
g2529
sbsVHenderson, Carlos
p2534
(i__main__
Player
p2535
(dp2536
g4
(lp2537
I0
aF0.6700000000000002
aF0.6000000000000001
aF0.6500000000000001
aF0.78
aF0.6500000000000001
aF0.6700000000000002
aF0.6000000000000001
aF0.78
aF0.77
aI0
aF0.5800000000000001
aF0.73
aF0.6400000000000001
aF0.72
aF0.6700000000000002
aF0.6000000000000001
aI0
asg6
g7
sg8
VDEN
p2538
sg10
I13171
sg11
g2534
sbsVGoff, Jared
p2539
(i__main__
Player
p2540
(dp2541
g4
(lp2542
I0
aF13.782
aF15.672000000000002
aF14.018
aF14.002000000000002
aF15.778
aF16.88
aF19.084000000000003
aF19.492
aF17.11
aF15.778
aF15.966
aI0
aF19.004
aF15.723999999999998
aF14.894
aF15.672000000000002
aI0
asg6
g27
sg8
VLAR
p2543
sg10
I12611
sg11
g2539
sbsVManuel, E.J.
p2544
(i__main__
Player
p2545
(dp2546
g4
(lp2547
I0
aF0.08400000000000002
aF0.088
aF0.10400000000000001
aF0.1
aF0.07800000000000001
aF0.08000000000000002
aI0
aF0.092
aF0.1
aF0.07800000000000001
aF0.08000000000000002
aF0.16
aF0.08400000000000002
aF0.088
aF0.096
aF0.088
aI0
asg6
g27
sg8
VOAK
p2548
sg10
I11154
sg11
g2544
sbsVChesson, Jehu
p2549
(i__main__
Player
p2550
(dp2551
g4
(lp2552
I0
aI0
aI0
aI0
aF0.010000000000000002
aI0
aI0
aI0
aF0.010000000000000002
aI0
aI0
aI0
aI0
aI0
aI0
aI0
aI0
aI0
asg6
g7
sg8
VKCC
p2553
sg10
I13169
sg11
g2549
sbsVBryant, Martavis
p2554
(i__main__
Player
p2555
(dp2556
g4
(lp2557
I0
aF3.9200000000000004
aF3.85
aF3.74
aF3.91
aF3.5500000000000007
aF4.0600000000000005
aI0
aF4.0
aF4.11
aF3.5500000000000007
aF3.5900000000000003
aF3.7900000000000005
aF3.74
aF4.16
aF3.66
aF3.85
aI0
asg6
g7
sg8
VOAK
p2558
sg10
I11688
sg11
g2554
sbsVNelson, J.J.
p2559
(i__main__
Player
p2560
(dp2561
g4
(lp2562
I0
aF2.53
aF2.5199999999999996
aF2.54
aF2.58
aF2.65
aF2.41
aF2.42
aF2.65
aI0
aF2.4299999999999997
aF2.34
aF2.2399999999999998
aF2.67
aF2.48
aF2.57
aF2.5199999999999996
aI0
asg6
g7
sg8
VARZ
p2563
sg10
I12319
sg11
g2559
sbsVHenry, Derrick
p2564
(i__main__
Player
p2565
(dp2566
g4
(lp2567
I0
aF5.85
aF10.190000000000001
aF9.330000000000002
aF9.02
aF10.709999999999999
aF9.420000000000002
aF9.31
aI0
aF9.22
aF9.150000000000002
aF9.3
aF10.190000000000001
aF9.490000000000002
aF9.330000000000002
aF9.46
aF10.19
aI0
asg6
g38
sg8
VTEN
p2568
sg10
I12626
sg11
g2564
sbsVHogan, Kevin
p2569
(i__main__
Player
p2570
(dp2571
g4
(lp2572
I0
aF0.007000000000000001
aF0.006
aF0.006
aI0
aF0.007000000000000001
aF0.006
aF0.006
aF0.006
aF0.006
aF0.007000000000000001
aF0.006
aF0.006
aF0.007000000000000001
aF0.006
aF0.007000000000000001
aF0.006
aI0
asg6
g27
sg8
VWAS
p2573
sg10
I12618
sg11
g2569
sbsVHolmes, Andre
p2574
(i__main__
Player
p2575
(dp2576
g4
(lp2577
I0
aF1.05
aF1.03
aF1.05
aF1.09
aF1.1
aF1.7100000000000002
aF1.07
aF1.07
aF1.07
aF1.6800000000000002
aI0
aF1.06
aF1.03
aF1.6800000000000002
aF1.04
aF1.07
aI0
asg6
g7
sg8
VBUF
p2578
sg10
I10674
sg11
g2574
sbsVPerriman, Breshad
p2579
(i__main__
Player
p2580
(dp2581
g4
(lp2582
I0
aF2.012
aF2.024
aF2.0730000000000004
aF2.323
aF2.1830000000000003
aF2.313
aF2.253
aF2.543
aF2.323
aI0
aF2.024
aF2.012
aF2.233
aF2.083
aF2.343
aF1.9120000000000001
aI0
asg6
g7
sg8
VBAL
p2583
sg10
I12197
sg11
g2579
sbsVParkey, Cody
p2584
(i__main__
Player
p2585
(dp2586
g4
(lp2587
I0
aF5.8100000000000005
aF5.510000000000001
aF4.960000000000001
aF5.41
aI0
aF5.510000000000001
aF5.0600000000000005
aF5.11
aF5.8100000000000005
aF5.41
aF5.0600000000000005
aF5.41
aF5.0600000000000005
aF4.86
aF5.8100000000000005
aF4.960000000000001
aI0
asg6
g145
sg8
VCHI
p2588
sg10
I11966
sg11
g2584
sbsVBenjamin, Kelvin
p2589
(i__main__
Player
p2590
(dp2591
g4
(lp2592
I0
aF6.08
aF4.380000000000001
aF4.58
aF4.88
aF4.98
aF5.09
aF4.8100000000000005
aF4.84
aF4.800000000000001
aF4.74
aI0
aF4.69
aF4.58
aF4.74
aF4.57
aF4.84
aI0
asg6
g7
sg8
VBUF
p2593
sg10
I11673
sg11
g2589
sbsVWinston, Jameis
p2594
(i__main__
Player
p2595
(dp2596
g4
(lp2597
I0
aI0
aI0
aI0
aF13.938
aI0
aF17.955999999999996
aF18.222
aF17.116
aF17.764000000000003
aF13.992
aF18.39
aF18.098
aF17.764000000000003
aF15.792000000000002
aF12.57
aF15.984000000000002
aI0
asg6
g27
sg8
VTBB
p2598
sg10
I12140
sg11
g2594
sbsVBoswell, Chris
p2599
(i__main__
Player
p2600
(dp2601
g4
(lp2602
I0
aF9.0
aF8.2
aF9.3
aF8.3
aF8.1
aF9.2
aI0
aF9.0
aF8.3
aF8.600000000000001
aF8.2
aF8.2
aF8.1
aF9.8
aF8.3
aF9.3
aI0
asg6
g145
sg8
VPIT
p2603
sg10
I11936
sg11
g2599
sbsVBray, Tyler
p2604
(i__main__
Player
p2605
(dp2606
g4
(lp2607
I0
aF0.0
aF0.0
aF0.0
aF0.0
aI0
aF0.0
aF0.0
aF0.0
aF0.0
aF0.0
aF0.0
aF0.0
aF0.0
aF0.0
aF0.0
aF0.0
aI0
asg6
g27
sg8
VCHI
p2608
sg10
I11170
sg11
g2604
sbsVHauschka, Steven
p2609
(i__main__
Player
p2610
(dp2611
g4
(lp2612
I0
aF7.5
aF6.8
aF7.5
aF8.1
aF8.5
aF9.2
aF7.5
aF7.5
aF8.1
aF7.6
aI0
aF7.3999999999999995
aF7.6
aF7.6
aF7.6
aF7.5
aI0
asg6
g145
sg8
VBUF
p2613
sg10
I9319
sg11
g2609
sbsVGolden, Brittan
p2614
(i__main__
Player
p2615
(dp2616
g4
(lp2617
I0
aI0
aF0.27
aF0.28
aF0.31
aF0.28
aF0.23000000000000004
aF0.24
aF0.28
aI0
aF0.24
aF0.23000000000000004
aF0.21000000000000002
aF0.29
aF0.24
aF0.28
aF0.27
aI0
asg6
g7
sg8
VARZ
p2618
sg10
I11570
sg11
g2614
sbsVHopkins, DeAndre
p2619
(i__main__
Player
p2620
(dp2621
g4
(lp2622
I0
aF10.67
aF12.01
aF12.13
aF11.63
aF11.87
aF10.34
aF10.87
aF10.459999999999999
aF10.6
aI0
aF11.58
aF12.01
aF11.41
aF11.63
aF10.84
aF11.819999999999999
aI0
asg6
g7
sg8
VHOU
p2623
sg10
I11232
sg11
g2619
sbsVBarkley, Saquon
p2624
(i__main__
Player
p2625
(dp2626
g4
(lp2627
I0
aF7.95
aF11.970000000000002
aF13.1
aF12.700000000000001
aF11.860000000000003
aF11.5
aF11.7
aF13.150000000000002
aI0
aF11.450000000000003
aF12.72
aF11.5
aF12.410000000000002
aF13.150000000000002
aF11.93
aF12.65
aI0
asg6
g38
sg8
VNYG
p2628
sg10
I13604
sg11
g2624
sbsVGillislee, Mike
p2629
(i__main__
Player
p2630
(dp2631
g4
(lp2632
I0
aF4.040000000000001
aF3.64
aF4.03
aF3.8600000000000003
aF3.7100000000000004
aF3.7100000000000004
aF3.5400000000000005
aF4.859999999999999
aF3.68
aF3.65
aI0
aF3.8000000000000003
aF3.5100000000000002
aF3.8600000000000003
aF3.7600000000000002
aF4.859999999999999
aI0
asg6
g38
sg8
VNEP
p2633
sg10
I11180
sg11
g2629
sbsVVikings, Minnesota
p2634
(i__main__
Player
p2635
(dp2636
g4
(lp2637
I0
aF3.8800000000000003
aF8.5
aF8.200000000000001
aF5.0
aF5.0
aF9.1
aF8.3
aF5.0
aF8.200000000000001
aI0
aF8.5
aF8.5
aF4.9
aF8.3
aF8.3
aF8.200000000000001
aI0
asg6
g89
sg8
VMIN
p2638
sg10
I524
sg11
g2634
sbsVSharpe, Tajae
p2639
(i__main__
Player
p2640
(dp2641
g4
(lp2642
I0
aF1.7000000000000002
aF1.9900000000000002
aF1.94
aF2.0
aF1.7600000000000002
aF1.81
aF1.7800000000000002
aI0
aF2.0100000000000002
aF1.9700000000000002
aF2.06
aF1.9900000000000002
aF1.8600000000000003
aF1.94
aF2.06
aF1.9500000000000002
aI0
asg6
g7
sg8
VTEN
p2643
sg10
I12657
sg11
g2639
sbsVSprinkle, Jeremy
p2644
(i__main__
Player
p2645
(dp2646
g4
(lp2647
I0
aF0.36800000000000005
aF0.38800000000000007
aF0.38900000000000007
aI0
aF0.42
aF0.347
aF0.37800000000000006
aF0.38800000000000007
aF0.36800000000000005
aF0.327
aF0.38900000000000007
aF0.37800000000000006
aF0.36700000000000005
aF0.38800000000000007
aF0.337
aF0.37800000000000006
aI0
asg6
g16
sg8
VWAS
p2648
sg10
I13194
sg11
g2644
sbsVJones, Julio
p2649
(i__main__
Player
p2650
(dp2651
g4
(lp2652
I0
aF10.98
aF12.610000000000001
aF10.99
aF9.9
aF11.23
aF11.52
aF11.33
aI0
aF10.65
aF10.5
aF11.0
aF10.99
aF10.290000000000001
aF10.959999999999999
aF9.01
aF12.610000000000001
aI0
asg6
g7
sg8
VATL
p2653
sg10
I10271
sg11
g2649
sbsVDavis, Justin
p2654
(i__main__
Player
p2655
(dp2656
g4
(lp2657
I0
aF0.004
aF0.004
aF0.004
aF0.004
aF0.004
aF0.004
aF0.004
aF0.004
aF0.004
aF0.004
aF0.004
aI0
aF0.005000000000000001
aF0.004
aF0.004
aF0.004
aI0
asg6
g38
sg8
VLAR
p2658
sg10
I13150
sg11
g2654
sbsVShepard, Sterling
p2659
(i__main__
Player
p2660
(dp2661
g4
(lp2662
I0
aF5.520000000000001
aF5.9
aF6.240000000000001
aF5.95
aF7.42
aF6.8100000000000005
aF5.880000000000001
aF5.760000000000001
aI0
aF6.120000000000001
aF6.2
aF6.8100000000000005
aF5.840000000000001
aF5.760000000000001
aF6.090000000000001
aF5.870000000000001
aI0
asg6
g7
sg8
VNYG
p2663
sg10
I12658
sg11
g2659
sbsVHunt, Kareem
p2664
(i__main__
Player
p2665
(dp2666
g4
(lp2667
I0
aF13.72
aF13.13
aF11.490000000000002
aF12.02
aF12.190000000000001
aF12.060000000000002
aF13.959999999999999
aF12.02
aF13.190000000000001
aF11.8
aF12.979999999999999
aI0
aF12.09
aF13.17
aF13.13
aF12.969999999999999
aI0
asg6
g38
sg8
VKCC
p2668
sg10
I13138
sg11
g2664
sbsVQuick, Brian
p2669
(i__main__
Player
p2670
(dp2671
g4
(lp2672
I0
aF0.98
aF0.9100000000000001
aF0.9199999999999999
aI0
aF0.9100000000000001
aF1.12
aF0.9000000000000001
aF0.9400000000000002
aF0.9100000000000001
aF0.96
aF0.97
aF0.9000000000000001
aF0.96
aF0.9400000000000002
aF0.8799999999999999
aF0.9400000000000002
aI0
asg6
g7
sg8
VWAS
p2673
sg10
I10735
sg11
g2669
sbsVWest, Charcandrick
p2674
(i__main__
Player
p2675
(dp2676
g4
(lp2677
I0
aF2.04
aF2.0500000000000003
aF1.9400000000000002
aF1.87
aF1.83
aF1.8800000000000001
aF1.77
aF1.79
aF2.0500000000000003
aF2.7600000000000002
aI0
aF1.85
aF1.85
aF2.7600000000000002
aF2.17
aF1.8600000000000003
aI0
asg6
g38
sg8
VNYJ
p2678
sg10
I12098
sg11
g2674
sbsVAuclair, Antony
p2679
(i__main__
Player
p2680
(dp2681
g4
(lp2682
I0
aF0.07
aF0.08000000000000003
aF0.10000000000000003
aF0.12000000000000002
aI0
aF0.13
aF0.13
aF0.13
aF0.11000000000000001
aF0.12000000000000002
aF0.13
aF0.13
aF0.11000000000000001
aF0.07
aF0.11000000000000001
aF0.12000000000000002
aI0
asg6
g16
sg8
VTBB
p2683
sg10
I13445
sg11
g2679
sbsVWilliams, Kerwynn
p2684
(i__main__
Player
p2685
(dp2686
g4
(lp2687
I0
aF2.3200000000000003
aF2.41
aF2.1
aF2.2800000000000007
aF2.35
aF2.2800000000000007
aF2.75
aF2.2800000000000007
aF2.4600000000000004
aF2.23
aF2.48
aI0
aF2.22
aF2.45
aF2.3200000000000003
aF2.44
aI0
asg6
g38
sg8
VKCC
p2688
sg10
I11185
sg11
g2684
sbsVCohen, Tarik
p2689
(i__main__
Player
p2690
(dp2691
g4
(lp2692
I0
aF3.8800000000000003
aF7.040000000000001
aF6.770000000000001
aF7.040000000000001
aI0
aF7.41
aF6.86
aF7.2
aF7.830000000000002
aF7.390000000000001
aF6.69
aF7.390000000000001
aF7.23
aF7.050000000000001
aF6.9300000000000015
aF6.59
aI0
asg6
g38
sg8
VCHI
p2693
sg10
I13290
sg11
g2689
sbsVWare, Spencer
p2694
(i__main__
Player
p2695
(dp2696
g4
(lp2697
I0
aF4.7700000000000005
aF5.78
aF5.48
aF5.750000000000001
aF5.750000000000001
aF5.650000000000001
aF6.8
aF5.750000000000001
aF5.910000000000001
aF5.6000000000000005
aF5.82
aI0
aF5.610000000000001
aF5.8900000000000015
aF5.720000000000001
aF5.82
aI0
asg6
g38
sg8
VKCC
p2698
sg10
I11199
sg11
g2694
sbsVPryor, Terrelle
p2699
(i__main__
Player
p2700
(dp2701
g4
(lp2702
I0
aF0.76
aF0.5999999999999999
aF0.6400000000000001
aF0.6200000000000001
aF0.6000000000000001
aF0.6600000000000001
aF0.6000000000000001
aF0.6500000000000001
aF0.5999999999999999
aF0.56
aI0
aF0.6500000000000001
aF0.69
aF0.56
aF0.7100000000000002
aF0.6699999999999999
aI0
asg6
g7
sg8
VNYJ
p2703
sg10
I10500
sg11
g2699
sbsVMyers, Jason
p2704
(i__main__
Player
p2705
(dp2706
g4
(lp2707
I0
aF8.120000000000001
aF7.720000000000001
aF8.120000000000001
aF7.1899999999999995
aF6.789999999999999
aF7.22
aF7.72
aF8.120000000000001
aF7.720000000000001
aF8.22
aI0
aF7.1899999999999995
aF8.52
aF8.22
aF8.920000000000002
aF8.22
aI0
asg6
g145
sg8
VNYJ
p2708
sg10
I12437
sg11
g2704
sbsVRams, Los Angeles
p2709
(i__main__
Player
p2710
(dp2711
g4
(lp2712
I0
aF7.3
aF9.3
aF5.579999999999999
aF6.1
aF8.1
aF8.1
aF6.1
aF8.1
aF5.68
aF8.1
aF6.0
aI0
aF7.7
aF8.1
aF6.0
aF9.3
aI0
asg6
g89
sg8
VLAR
p2713
sg10
I528
sg11
g2709
sbsVHill, Jeremy
p2714
(i__main__
Player
p2715
(dp2716
g4
(lp2717
I0
aF2.21
aF0.76
aF0.8600000000000001
aF0.83
aF0.77
aF0.75
aF0.71
aF0.91
aF0.78
aF0.7500000000000001
aI0
aF0.79
aF0.7000000000000001
aF0.83
aF0.78
aF0.91
aI0
asg6
g38
sg8
VNEP
p2718
sg10
I11654
sg11
g2714
sbsVMagee, Terrence
p2719
(i__main__
Player
p2720
(dp2721
g4
(lp2722
I0
aF0.010000000000000002
aF0.010000000000000002
aF0.010000000000000002
aF0.010000000000000002
aF0.010000000000000002
aF0.010000000000000002
aF0.010000000000000002
aI0
aF0.010000000000000002
aF0.010000000000000002
aF0.010000000000000002
aF0.010000000000000002
aF0.010000000000000002
aF0.010000000000000002
aF0.010000000000000002
aF0.010000000000000002
aI0
asg6
g38
sg8
VATL
p2723
sg10
I12166
sg11
g2719
sbsVJames, Jesse
p2724
(i__main__
Player
p2725
(dp2726
g4
(lp2727
I0
aF2.58
aF2.2600000000000002
aF2.13
aF2.3500000000000005
aF2.47
aF2.52
aI0
aF2.58
aF2.3500000000000005
aF2.2600000000000002
aF2.2300000000000004
aF2.51
aF2.34
aF2.61
aF2.0600000000000005
aF2.2199999999999998
aI0
asg6
g16
sg8
VPIT
p2728
sg10
I12211
sg11
g2724
sbsVSmith, Jonnu
p2729
(i__main__
Player
p2730
(dp2731
g4
(lp2732
I0
aF1.5100000000000002
aF1.33
aF1.25
aF1.21
aF1.3
aF1.23
aF1.2799999999999998
aI0
aF1.3199999999999998
aF1.09
aF1.33
aF1.33
aF1.31
aF1.25
aF1.42
aF1.31
aI0
asg6
g16
sg8
VTEN
p2733
sg10
I13193
sg11
g2729
sbsVAbdullah, Ameer
p2734
(i__main__
Player
p2735
(dp2736
g4
(lp2737
I0
aF5.42
aF4.730000000000001
aF5.04
aF5.12
aF5.01
aI0
aF5.7
aF5.26
aF4.99
aF4.99
aF5.06
aF4.99
aF5.26
aF4.9
aF6.130000000000001
aF4.99
aI0
asg6
g38
sg8
VDET
p2738
sg10
I12155
sg11
g2734
sbsVDarboh, Amara
p2739
(i__main__
Player
p2740
(dp2741
g4
(lp2742
I0
aF0.27
aF0.29000000000000004
aF0.29000000000000004
aF0.26
aF0.28
aF0.26
aI0
aF0.27
aF0.25
aF0.28
aF0.29000000000000004
aF0.3400000000000001
aF0.32000000000000006
aF0.27
aF0.32000000000000006
aF0.28
aI0
asg6
g7
sg8
VSEA
p2743
sg10
I13166
sg11
g2739
sbsVTate, Golden
p2744
(i__main__
Player
p2745
(dp2746
g4
(lp2747
I0
aF7.420000000000001
aF7.84
aF7.66
aF7.79
aF7.89
aI0
aF6.540000000000002
aF7.7299999999999995
aF7.21
aF7.6000000000000005
aF8.8
aF7.6000000000000005
aF7.480000000000001
aF6.29
aF6.430000000000001
aF7.21
aI0
asg6
g7
sg8
VDET
p2748
sg10
I9831
sg11
g2744
sbsVAustin, Tavon
p2749
(i__main__
Player
p2750
(dp2751
g4
(lp2752
I0
aF1.21
aF1.0099999999999998
aF0.9700000000000001
aF0.89
aF1.06
aF0.93
aF0.92
aI0
aF1.02
aF1.0
aF0.9500000000000001
aF0.92
aF1.0
aF1.0
aF0.9600000000000001
aF1.0699999999999998
aI0
asg6
g7
sg8
VDAL
p2753
sg10
I11213
sg11
g2749
sbsVAgholor, Nelson
p2754
(i__main__
Player
p2755
(dp2756
g4
(lp2757
I0
aF6.800000000000001
aF7.110000000000001
aF6.8100000000000005
aF7.01
aF6.540000000000001
aF7.0
aF8.23
aF6.69
aI0
aF6.82
aF6.880000000000001
aF7.0
aF6.710000000000001
aF6.82
aF6.770000000000001
aF7.140000000000001
aI0
asg6
g7
sg8
VPHI
p2758
sg10
I12181
sg11
g2754
sbsVNugent, Mike
p2759
(i__main__
Player
p2760
(dp2761
g4
(lp2762
I0
aF5.4
aF5.4
aF6.1000000000000005
aF5.6499999999999995
aF5.4
aF6.4
aI0
aF5.5
aF5.5
aF5.4
aF5.55
aF5.55
aF5.5
aF5.4
aF5.6499999999999995
aF5.4
aI0
asg6
g145
sg8
VOAK
p2763
sg10
I7859
sg11
g2759
sbsVBernard, Giovani
p2764
(i__main__
Player
p2765
(dp2766
g4
(lp2767
I0
aF7.410000000000001
aF8.03
aF7.53
aF7.3500000000000005
aF8.49
aF8.08
aF7.660000000000001
aF7.86
aI0
aF7.900000000000001
aF8.03
aF8.07
aF7.54
aF7.880000000000001
aF7.560000000000001
aF8.07
aI0
asg6
g38
sg8
VCIN
p2768
sg10
I11193
sg11
g2764
sbsVMorris, Alfred
p2769
(i__main__
Player
p2770
(dp2771
g4
(lp2772
I0
aF2.88
aF3.5400000000000005
aF3.06
aF3.22
aF2.86
aF3.08
aF3.1799999999999997
aF2.86
aF3.07
aF3.2600000000000002
aI0
aF3.1599999999999997
aF3.0999999999999996
aF3.04
aF3.0999999999999996
aF2.9099999999999997
aI0
asg6
g38
sg8
VSFO
p2773
sg10
I10870
sg11
g2769
sbsVEverett, Gerald
p2774
(i__main__
Player
p2775
(dp2776
g4
(lp2777
I0
aF1.2500000000000002
aF1.0800000000000003
aF1.11
aF0.9200000000000002
aF0.9600000000000002
aF1.1600000000000001
aF1.1700000000000002
aF1.2500000000000002
aF0.97
aF0.9600000000000002
aF1.0600000000000003
aI0
aF1.27
aF1.0000000000000002
aF0.9600000000000002
aF1.0800000000000003
aI0
asg6
g16
sg8
VLAR
p2778
sg10
I13236
sg11
g2774
sbsVBallage, Kalen
p2779
(i__main__
Player
p2780
(dp2781
g4
(lp2782
I0
aF0.30000000000000004
aF0.29000000000000004
aF0.26
aF0.28
aF0.34
aF0.26
aF0.32
aF0.30000000000000004
aF0.29000000000000004
aF0.28
aI0
aF0.28
aF0.44
aF0.28
aF0.26
aF0.28
aI0
asg6
g38
sg8
VMIA
p2783
sg10
I13621
sg11
g2779
sbsVLynch, Paxton
p2784
(i__main__
Player
p2785
(dp2786
g4
(lp2787
I0
aF0.43800000000000006
aF0.44199999999999995
aF0.41000000000000003
aF0.43800000000000006
aF0.533
aF0.44599999999999995
aF0.43399999999999994
aF0.43800000000000006
aF0.5409999999999999
aI0
aF0.406
aF0.505
aF0.5249999999999999
aF0.537
aF0.5409999999999999
aF0.44199999999999995
aI0
asg6
g27
sg8
VDEN
p2788
sg10
I12612
sg11
g2784
sbsVScarbrough, Bo
p2789
(i__main__
Player
p2790
(dp2791
g4
(lp2792
I0
aF0.5
aF0.44
aF0.41000000000000003
aF0.45
aF0.45
aF0.41000000000000003
aF0.47000000000000003
aI0
aF0.41000000000000003
aF0.38
aF0.39
aF0.47000000000000003
aF0.43
aF0.38
aF0.41000000000000003
aF0.43000000000000005
aI0
asg6
g38
sg8
VDAL
p2793
sg10
I13615
sg11
g2789
sbsVKroft, Tyler
p2794
(i__main__
Player
p2795
(dp2796
g4
(lp2797
I0
aF3.62
aF2.54
aF2.5600000000000005
aF2.66
aF2.84
aF2.5300000000000002
aF2.58
aF2.47
aI0
aF2.5300000000000002
aF2.54
aF2.7
aF2.66
aF2.6100000000000003
aF2.7600000000000002
aF2.7
aI0
asg6
g16
sg8
VCIN
p2798
sg10
I12212
sg11
g2794
sbsVMomah, Ifeanyi
p2799
(i__main__
Player
p2800
(dp2801
g4
(lp2802
I0
aI0
aF0.08000000000000002
aF0.08000000000000002
aF0.06999999999999999
aF0.09000000000000001
aF0.06999999999999999
aF0.09000000000000001
aF0.09000000000000001
aI0
aF0.08000000000000002
aF0.09000000000000001
aF0.08000000000000002
aF0.09000000000000001
aF0.09000000000000001
aF0.09000000000000001
aF0.08000000000000002
aI0
asg6
g16
sg8
VARZ
p2803
sg10
I11343
sg11
g2799
sbsVDoctson, Josh
p2804
(i__main__
Player
p2805
(dp2806
g4
(lp2807
I0
aF6.236000000000001
aF7.44
aF7.580000000000001
aI0
aF6.995000000000001
aF8.34
aF7.61
aF7.750000000000001
aF7.44
aF7.73
aF7.7700000000000005
aF7.61
aF6.913000000000001
aF7.750000000000001
aF6.720000000000001
aF7.630000000000001
aI0
asg6
g7
sg8
VWAS
p2808
sg10
I12648
sg11
g2804
sbsVMostert, Raheem
p2809
(i__main__
Player
p2810
(dp2811
g4
(lp2812
I0
aF0.1
aF0.12
aF0.1
aF0.11000000000000001
aF0.09000000000000001
aF0.1
aF0.09
aF0.09000000000000001
aF0.1
aF0.11000000000000001
aI0
aF0.11000000000000001
aF0.11000000000000001
aF0.1
aF0.11000000000000001
aF0.1
aI0
asg6
g38
sg8
VSFO
p2813
sg10
I12447
sg11
g2809
sbsVNelson, Jordy
p2814
(i__main__
Player
p2815
(dp2816
g4
(lp2817
I0
aF4.44
aF7.480000000000001
aF6.87
aF7.66
aF6.83
aF7.859999999999999
aI0
aF7.75
aF7.87
aF6.83
aF6.680000000000001
aF7.590000000000002
aF7.480000000000001
aF7.880000000000001
aF7.420000000000001
aF7.480000000000001
aI0
asg6
g7
sg8
VOAK
p2818
sg10
I9118
sg11
g2814
sbsVWright, Jarius
p2819
(i__main__
Player
p2820
(dp2821
g4
(lp2822
I0
aF0.12199999999999997
aF0.12299999999999997
aF0.08300000000000002
aI0
aF0.13199999999999998
aF0.11300000000000002
aF0.12199999999999997
aF0.09300000000000003
aF0.142
aF0.142
aF0.08300000000000002
aF0.11699999999999997
aF0.142
aF0.11300000000000002
aF0.10299999999999998
aF0.12299999999999997
aI0
asg6
g7
sg8
VCAR
p2823
sg10
I10734
sg11
g2819
sbsVDeValve, Seth
p2824
(i__main__
Player
p2825
(dp2826
g4
(lp2827
I0
aF1.3699999999999999
aF1.4600000000000002
aF1.56
aF1.6700000000000002
aF1.47
aF1.54
aF1.34
aF1.3699999999999999
aF1.5000000000000002
aF1.58
aI0
aF1.6
aF1.6800000000000002
aF1.49
aF1.61
aF1.6
aI0
asg6
g16
sg8
VCLE
p2828
sg10
I12792
sg11
g2824
sbsVBills, Buffalo
p2829
(i__main__
Player
p2830
(dp2831
g4
(lp2832
I0
aF3.8000000000000003
aF3.8000000000000003
aF4.9
aF6.1000000000000005
aF6.0
aF8.899999999999999
aF6.1000000000000005
aF4.800000000000001
aF6.1000000000000005
aF6.1000000000000005
aI0
aF4.800000000000001
aF6.0
aF6.1000000000000005
aF5.7
aF4.800000000000001
aI0
asg6
g89
sg8
VBUF
p2833
sg10
I501
sg11
g2829
sbsVErickson, Alex
p2834
(i__main__
Player
p2835
(dp2836
g4
(lp2837
I0
aF0.9420000000000002
aF0.873
aF1.121
aF0.9520000000000001
aF0.873
aF0.9920000000000001
aF0.9030000000000001
aF1.012
aI0
aF0.9620000000000001
aF0.873
aF0.923
aF0.9930000000000001
aF0.8330000000000001
aF0.8630000000000001
aF0.923
aI0
asg6
g7
sg8
VCIN
p2838
sg10
I12913
sg11
g2834
sbsVGrant, Jakeem
p2839
(i__main__
Player
p2840
(dp2841
g4
(lp2842
I0
aF0.9700000000000001
aF0.8700000000000001
aF0.8400000000000001
aF0.9600000000000001
aF0.8400000000000001
aF0.9500000000000001
aF0.8600000000000001
aF1.08
aF0.8700000000000001
aF0.9700000000000001
aI0
aF0.9500000000000001
aF0.8300000000000001
aF0.9600000000000001
aF0.8600000000000001
aF0.9400000000000001
aI0
asg6
g7
sg8
VMIA
p2843
sg10
I12814
sg11
g2839
sbsVRogers, Chester
p2844
(i__main__
Player
p2845
(dp2846
g4
(lp2847
I0
aF2.5900000000000003
aF2.93
aF3.0700000000000003
aF3.22
aF3.0400000000000005
aF2.87
aF2.67
aF2.7100000000000004
aI0
aF2.97
aF3.1200000000000006
aF2.75
aF2.97
aF3.22
aF3.0900000000000003
aF3.18
aI0
asg6
g7
sg8
VIND
p2848
sg10
I12934
sg11
g2844
sbsVRudolph, Mason
p2849
(i__main__
Player
p2850
(dp2851
g4
(lp2852
I0
aF-0.052000000000000005
aF-0.061
aF-0.061
aF-0.06899999999999999
aF-0.054000000000000006
aF-0.05500000000000001
aI0
aF-0.052000000000000005
aF-0.06899999999999999
aF-0.052000000000000005
aF-0.062
aF-0.061
aF-0.06999999999999999
aF-0.063
aF-0.065
aF-0.06
aI0
asg6
g27
sg8
VPIT
p2853
sg10
I13595
sg11
g2849
sbsVBoone, Mike
p2854
(i__main__
Player
p2855
(dp2856
g4
(lp2857
I0
aF0.36000000000000004
aF0.37000000000000005
aF0.53
aF0.41
aF0.35000000000000003
aF0.38000000000000006
aF0.43000000000000005
aF0.41
aF0.47000000000000003
aI0
aF0.38
aF0.37000000000000005
aF0.38000000000000006
aF0.41
aF0.48000000000000004
aF0.47000000000000003
aI0
asg6
g38
sg8
VMIN
p2858
sg10
I13868
sg11
g2854
sbsVKeenum, Case
p2859
(i__main__
Player
p2860
(dp2861
g4
(lp2862
I0
aF12.488000000000001
aF13.103999999999997
aF11.378
aF13.011999999999999
aF15.472000000000001
aF13.316
aF12.394
aF13.011999999999999
aF15.694
aI0
aF11.314
aF14.179999999999998
aF14.934
aF15.587999999999997
aF15.658
aF13.103999999999997
aI0
asg6
g27
sg8
VDEN
p2863
sg10
I10948
sg11
g2859
sbsVFluellen, David
p2864
(i__main__
Player
p2865
(dp2866
g4
(lp2867
I0
aF0.020000000000000004
aF0.020000000000000004
aF0.04300000000000001
aF0.010000000000000002
aF0.020000000000000004
aF0.020000000000000004
aF0.020000000000000004
aI0
aF0.020000000000000004
aF0.020000000000000004
aF0.020000000000000004
aF0.020000000000000004
aF0.020000000000000004
aF0.04300000000000001
aF0.020000000000000004
aF0.020000000000000004
aI0
asg6
g38
sg8
VTEN
p2868
sg10
I11894
sg11
g2864
sbsVBarner, Kenjon
p2869
(i__main__
Player
p2870
(dp2871
g4
(lp2872
I0
aF0.41000000000000003
aF0.26
aF0.39
aI0
aF0.38
aF0.36000000000000004
aF0.30000000000000004
aF0.35000000000000003
aF0.32999999999999996
aF0.35000000000000003
aF0.37000000000000005
aF0.32999999999999996
aF0.32999999999999996
aF0.35000000000000003
aF0.32999999999999996
aF0.26
aI0
asg6
g38
sg8
VCAR
p2873
sg10
I11177
sg11
g2869
sbsVCulkin, Sean
p2874
(i__main__
Player
p2875
(dp2876
g4
(lp2877
I0
aI0
aF0.004
aI0
aI0
aI0
aI0
aI0
aI0
aI0
aI0
aI0
aI0
aI0
aI0
aI0
aI0
aI0
asg6
g16
sg8
VLAC
p2878
sg10
I13438
sg11
g2874
sbsVThomas, Michael
p2879
(i__main__
Player
p2880
(dp2881
g4
(lp2882
I0
aF11.99
aF10.39
aF10.700000000000001
aF11.14
aF10.530000000000001
aI0
aF9.600000000000001
aF9.469999999999999
aF10.38
aF9.249
aF10.8
aF10.700000000000001
aF10.86
aF11.23
aF12.89
aF11.04
aI0
asg6
g7
sg8
VNOR
p2883
sg10
I12652
sg11
g2879
sbsVPerine, Samaje
p2884
(i__main__
Player
p2885
(dp2886
g4
(lp2887
I0
aF3.4000000000000004
aF5.340000000000001
aF5.3
aI0
aF5.59
aF5.15
aF5.1
aF5.590000000000001
aF4.9799999999999995
aF5.37
aF5.64
aF5.1
aF4.81
aF5.590000000000001
aF5.31
aF5.2
aI0
asg6
g38
sg8
VWAS
p2888
sg10
I13133
sg11
g2884
sbsVGordon, Melvin
p2889
(i__main__
Player
p2890
(dp2891
g4
(lp2892
I0
aF11.31
aF14.469999999999999
aF11.58
aF9.990000000000002
aF10.550000000000002
aF11.770000000000001
aF10.75
aI0
aF11.57
aF10.550000000000002
aF10.63
aF10.330000000000002
aF11.770000000000001
aF12.67
aF11.31
aF11.780000000000001
aI0
asg6
g38
sg8
VLAC
p2893
sg10
I12151
sg11
g2889
sbsVSiemian, Trevor
p2894
(i__main__
Player
p2895
(dp2896
g4
(lp2897
I0
aF3.0800000000000005
aF3.1119999999999997
aF1.9500000000000002
aF2.316
aF2.188
aF2.2540000000000004
aF3.0740000000000003
aF2.8659999999999997
aF3.038
aI0
aF2.1900000000000004
aF3.1119999999999997
aF2.2619999999999996
aF2.2780000000000005
aF3.124
aF3.038
aI0
asg6
g27
sg8
VMIN
p2898
sg10
I12381
sg11
g2894
sbsVBryant, Matt
p2899
(i__main__
Player
p2900
(dp2901
g4
(lp2902
I0
aF9.19
aF8.190000000000001
aF8.29
aF8.190000000000001
aF7.69
aF8.29
aF8.190000000000001
aI0
aF9.29
aF8.190000000000001
aF6.66
aF8.29
aF7.79
aF8.69
aF7.79
aF8.190000000000001
aI0
asg6
g145
sg8
VATL
p2903
sg10
I6789
sg11
g2899
sbsVWillson, Luke
p2904
(i__main__
Player
p2905
(dp2906
g4
(lp2907
I0
aF3.4999999999999996
aF3.59
aF2.6
aF3.5300000000000002
aF3.6399999999999997
aI0
aF3.76
aF2.7399999999999998
aF2.66
aF3.44
aF3.3899999999999997
aF3.44
aF3.54
aF3.43
aF3.4899999999999998
aF2.66
aI0
asg6
g16
sg8
VDET
p2908
sg10
I11381
sg11
g2904
sbsVStewart, ArDarius
p2909
(i__main__
Player
p2910
(dp2911
g4
(lp2912
I0
aI0
aI0
aF1.7199999999999998
aF1.7199999999999998
aF1.63
aF1.7600000000000002
aF1.65
aF1.7600000000000002
aF1.65
aF1.63
aI0
aF1.9
aF1.85
aF1.63
aF1.94
aF1.7999999999999998
aI0
asg6
g7
sg8
VNYJ
p2913
sg10
I13173
sg11
g2909
sbsVGurley, Todd
p2914
(i__main__
Player
p2915
(dp2916
g4
(lp2917
I0
aF15.57
aF16.919999999999998
aF17.72
aF16.7
aF17.689999999999998
aF17.299999999999997
aF16.409999999999997
aF17.48
aF17.76
aF17.689999999999998
aF17.419999999999998
aI0
aF19.54
aF16.9
aF16.73
aF16.919999999999998
aI0
asg6
g38
sg8
VLAR
p2918
sg10
I12150
sg11
g2914
sbsVBroncos, Denver
p2919
(i__main__
Player
p2920
(dp2921
g4
(lp2922
I0
aF6.3
aF7.2
aF4.8
aF6.0
aF7.9
aF5.8999999999999995
aF10.4
aF6.0
aF10.8
aI0
aF4.8
aF5.8
aF7.2
aF6.0
aF10.7
aF7.2
aI0
asg6
g89
sg8
VDEN
p2923
sg10
I511
sg11
g2919
sbsVDaniel, Chase
p2924
(i__main__
Player
p2925
(dp2926
g4
(lp2927
I0
aF-0.031
aF-0.03900000000000001
aF-0.03900000000000001
aF-0.037
aI0
aF-0.031
aF-0.03900000000000001
aF-0.032
aF-0.047
aF-0.033
aF-0.013000000000000005
aF-0.033
aF-0.018
aF-0.038000000000000006
aF-0.031
aF-0.032
aI0
asg6
g27
sg8
VCHI
p2928
sg10
I9706
sg11
g2924
sbsVAnderson, C.J.
p2929
(i__main__
Player
p2930
(dp2931
g4
(lp2932
I0
aF6.970000000000001
aF7.18
aF9.17
aI0
aF7.95
aF8.300000000000002
aF7.150000000000001
aF7.95
aF7.65
aF7.94
aF8.430000000000001
aF7.790000000000001
aF7.65
aF7.980000000000001
aF7.760000000000001
aF7.18
aI0
asg6
g38
sg8
VCAR
p2933
sg10
I11454
sg11
g2929
sbsVStewart, Jonathan
p2934
(i__main__
Player
p2935
(dp2936
g4
(lp2937
I0
aF5.260000000000001
aF5.210000000000001
aF5.630000000000001
aF5.38
aF5.16
aF4.890000000000001
aF4.900000000000001
aF5.710000000000001
aI0
aF4.8100000000000005
aF5.3100000000000005
aF4.890000000000001
aF4.99
aF5.710000000000001
aF5.22
aF5.3
aI0
asg6
g38
sg8
VNYG
p2938
sg10
I9101
sg11
g2934
sbsVRudolph, Travis
p2939
(i__main__
Player
p2940
(dp2941
g4
(lp2942
I0
aF0.66
aF0.5900000000000001
aF0.6200000000000001
aF0.5900000000000001
aF0.6900000000000001
aF0.5900000000000001
aF0.58
aF0.5900000000000001
aI0
aF0.6000000000000001
aF0.6200000000000001
aF0.5900000000000001
aF0.5700000000000001
aF0.5900000000000001
aF0.6000000000000001
aF0.58
aI0
asg6
g7
sg8
VNYG
p2943
sg10
I13181
sg11
g2939
sbsVDiarse, John
p2944
(i__main__
Player
p2945
(dp2946
g4
(lp2947
I0
aF-0.095
aF-0.095
aF-0.095
aF-0.095
aF-0.095
aF-0.095
aF-0.11499999999999999
aF-0.095
aF-0.094
aI0
aF-0.173
aF-0.095
aF-0.095
aF-0.095
aF-0.095
aF-0.095
aI0
asg6
g7
sg8
VDEN
p2948
sg10
I13889
sg11
g2944
sbsVCrosby, Mason
p2949
(i__main__
Player
p2950
(dp2951
g4
(lp2952
I0
aF6.540000000000001
aF5.99
aF6.74
aF6.640000000000001
aF6.140000000000001
aF5.690000000000001
aI0
aF5.26
aF5.99
aF6.540000000000001
aF6.640000000000001
aF5.99
aF5.99
aF5.51
aF6.540000000000001
aF6.09
aI0
asg6
g145
sg8
VGBP
p2953
sg10
I8742
sg11
g2949
sbsVBrown, Antonio
p2954
(i__main__
Player
p2955
(dp2956
g4
(lp2957
I0
aF14.09
aF11.729999999999999
aF13.329999999999998
aF11.74
aF12.19
aF11.37
aI0
aF11.94
aF11.74
aF14.970000000000002
aF12.01
aF11.67
aF11.15
aF11.42
aF12.17
aF12.299999999999999
aI0
asg6
g7
sg8
VPIT
p2958
sg10
I9988
sg11
g2954
sbsVRogers, Eli
p2959
(i__main__
Player
p2960
(dp2961
g4
(lp2962
I0
aI0
aI0
aI0
aI0
aI0
aI0
aI0
aF1.4
aF1.3390000000000002
aF1.75
aF1.3790000000000002
aF1.3290000000000002
aF1.229
aF1.2890000000000001
aF1.5600000000000003
aF1.4800000000000002
aI0
asg6
g7
sg8
VPIT
p2963
sg10
I12731
sg11
g2959
sbsVCannon, Trenton
p2964
(i__main__
Player
p2965
(dp2966
g4
(lp2967
I0
aF0.8300000000000002
aF0.81
aF0.7300000000000001
aF0.7000000000000001
aF0.6700000000000002
aF0.7100000000000001
aF0.64
aF0.6500000000000001
aF0.81
aF0.93
aI0
aF0.6900000000000001
aF0.7000000000000001
aF0.93
aF0.7900000000000001
aF0.7100000000000001
aI0
asg6
g38
sg8
VNYJ
p2968
sg10
I13816
sg11
g2964
sbsVRudolph, Kyle
p2969
(i__main__
Player
p2970
(dp2971
g4
(lp2972
I0
aF7.24
aF5.83
aF5.620000000000001
aF5.720000000000001
aF5.3100000000000005
aF5.530000000000001
aF5.630000000000001
aF5.3500000000000005
aF6.5
aI0
aF5.450000000000001
aF5.83
aF4.49
aF5.34
aF6.67
aF6.5
aI0
asg6
g16
sg8
VMIN
p2973
sg10
I10312
sg11
g2969
sbsVBridgewater, Teddy
p2974
(i__main__
Player
p2975
(dp2976
g4
(lp2977
I0
aF-0.012
aF-0.011000000000000001
aF-0.010000000000000002
aF-0.010000000000000002
aF-0.013000000000000001
aI0
aF-0.014000000000000002
aF-0.014000000000000002
aF-0.013000000000000001
aF-0.056
aF-0.013000000000000001
aF-0.010000000000000002
aF-0.012
aF-0.012
aF-0.010000000000000002
aF-0.012
aI0
asg6
g27
sg8
VNOR
p2978
sg10
I11640
sg11
g2974
sbsVColeman, Corey
p2979
(i__main__
Player
p2980
(dp2981
g4
(lp2982
I0
aF1.7160000000000002
aF1.607
aF1.706
aF2.035
aF1.9740000000000002
aF2.024
aF1.8650000000000002
aF1.875
aF1.8650000000000002
aF1.796
aI0
aF1.9049999999999998
aF1.687
aF1.796
aF1.696
aF1.875
aI0
asg6
g7
sg8
VBUF
p2983
sg10
I12646
sg11
g2979
sbsVTreadwell, Laquon
p2984
(i__main__
Player
p2985
(dp2986
g4
(lp2987
I0
aF1.33
aF1.33
aF1.16
aF1.26
aF1.3
aF1.16
aF1.25
aF1.29
aF1.2000000000000002
aI0
aF1.29
aF1.33
aF1.3
aF1.31
aF1.1800000000000002
aF1.2000000000000002
aI0
asg6
g7
sg8
VMIN
p2988
sg10
I12645
sg11
g2984
sbsVSavage, Tom
p2989
(i__main__
Player
p2990
(dp2991
g4
(lp2992
I0
aF0.07699999999999999
aF0.097
aF0.093
aF0.097
aF0.07299999999999998
aI0
aF0.069
aF0.062000000000000006
aF0.08099999999999999
aF0.089
aF0.069
aF0.093
aF0.08500000000000002
aF0.07699999999999999
aF0.097
aF0.08500000000000002
aI0
asg6
g27
sg8
VNOR
p2993
sg10
I11649
sg11
g2989
sbsVTaylor, Jordan
p2994
(i__main__
Player
p2995
(dp2996
g4
(lp2997
I0
aF1.48
aF1.5
aF1.4500000000000002
aF1.52
aF1.4900000000000002
aF1.4900000000000002
aF1.35
aF1.52
aF1.63
aI0
aF1.3200000000000003
aF1.5899999999999999
aF1.4000000000000004
aF1.5700000000000003
aF1.48
aF1.5
aI0
asg6
g7
sg8
VDEN
p2998
sg10
I12398
sg11
g2994
sbsVWilliams, Nick
p2999
(i__main__
Player
p3000
(dp3001
g4
(lp3002
I0
aI0
aI0
aI0
aI0
aF0.04000000000000001
aI0
aI0
aI0
aI0
aI0
aI0
aI0
aI0
aI0
aI0
aI0
aI0
asg6
g7
sg8
VTEN
p3003
sg10
I11600
sg11
g2999
sbs.